(i__main__
GraphData
p0
(dp1
S'd_hist'
p2
NsS'g'
p3
ccopy_reg
_reconstructor
p4
(cnetworkx.classes.graph
Graph
p5
c__builtin__
object
p6
Ntp7
Rp8
(dp9
S'node'
p10
(dp11
(I7
I3
tp12
(dp13
s(I31
I6
tp14
(dp15
s(I5
I31
tp16
(dp17
s(I20
I25
tp18
(dp19
s(I16
I9
tp20
(dp21
s(I6
I28
tp22
(dp23
s(I21
I28
tp24
(dp25
s(I19
I4
tp26
(dp27
s(I17
I20
tp28
(dp29
s(I7
I25
tp30
(dp31
s(I22
I19
tp32
(dp33
s(I20
I7
tp34
(dp35
s(I18
I19
tp36
(dp37
s(I23
I26
tp38
(dp39
s(I21
I6
tp40
(dp41
s(I8
I5
tp42
(dp43
s(I9
I0
tp44
(dp45
s(I14
I31
tp46
(dp47
s(I10
I7
tp48
(dp49
s(I15
I30
tp50
(dp51
s(I11
I22
tp52
(dp53
s(I0
I17
tp54
(dp55
s(I24
I14
tp56
(dp57
s(I14
I1
tp58
(dp59
s(I12
I17
tp60
(dp61
s(I1
I28
tp62
(dp63
s(I25
I15
tp64
(dp65
s(I15
I4
tp66
(dp67
s(I13
I20
tp68
(dp69
s(I2
I27
tp70
(dp71
s(I26
I12
tp72
(dp73
s(I29
I17
tp74
(dp75
s(I3
I2
tp76
(dp77
s(I27
I1
tp78
(dp79
s(I30
I14
tp80
(dp81
s(I4
I5
tp82
(dp83
s(I28
I10
tp84
(dp85
s(I31
I15
tp86
(dp87
s(I5
I24
tp88
(dp89
s(I29
I11
tp90
(dp91
s(I16
I0
tp92
(dp93
s(I6
I23
tp94
(dp95
s(I30
I16
tp96
(dp97
s(I19
I13
tp98
(dp99
s(I17
I13
tp100
(dp101
s(I7
I22
tp102
(dp103
s(I31
I21
tp104
(dp105
s(I20
I14
tp106
(dp107
s(I18
I10
tp108
(dp109
s(I23
I19
tp110
(dp111
s(I21
I15
tp112
(dp113
s(I8
I12
tp114
(dp115
s(I22
I12
tp116
(dp117
s(I9
I9
tp118
(dp119
s(I23
I9
tp120
(dp121
s(I10
I14
tp122
(dp123
s(I8
I18
tp124
(dp125
s(I11
I15
tp126
(dp127
s(I9
I19
tp128
(dp129
s(I24
I21
tp130
(dp131
s(I14
I8
tp132
(dp133
s(I12
I8
tp134
(dp135
s(I1
I21
tp136
(dp137
s(I25
I16
tp138
(dp139
s(I15
I13
tp140
(dp141
s(I13
I13
tp142
(dp143
s(I2
I18
tp144
(dp145
s(I26
I23
tp146
(dp147
s(I0
I14
tp148
(dp149
s(I3
I11
tp150
(dp151
s(I27
I6
tp152
(dp153
s(I1
I15
tp154
(dp155
s(I4
I12
tp156
(dp157
s(I28
I1
tp158
(dp159
s(I2
I12
tp160
(dp161
s(I5
I1
tp162
(dp163
s(I29
I4
tp164
(dp165
s(I3
I17
tp166
(dp167
s(I16
I7
tp168
(dp169
s(I6
I14
tp170
(dp171
s(I30
I27
tp172
(dp173
s(I19
I18
tp174
(dp175
s(I17
I6
tp176
(dp177
s(I7
I15
tp178
(dp179
s(I31
I18
tp180
(dp181
s(I20
I21
tp182
(dp183
s(I18
I5
tp184
(dp185
s(I16
I29
tp186
(dp187
s(I21
I8
tp188
(dp189
s(I17
I24
tp190
(dp191
s(I22
I7
tp192
(dp193
s(I18
I31
tp194
(dp195
s(I23
I6
tp196
(dp197
s(I10
I9
tp198
(dp199
s(I8
I25
tp200
(dp201
s(I11
I4
tp202
(dp203
s(I9
I20
tp204
(dp205
s(I24
I28
tp206
(dp207
s(I14
I19
tp208
(dp209
s(I12
I7
tp210
(dp211
s(I10
I19
tp212
(dp213
s(I25
I25
tp214
(dp215
s(I15
I10
tp216
(dp217
s(I13
I6
tp218
(dp219
s(I11
I26
tp220
(dp221
s(I26
I30
tp222
(dp223
s(I0
I5
tp224
(dp225
s(I24
I2
tp226
(dp227
s(I12
I29
tp228
(dp229
s(I27
I31
tp230
(dp231
s(I1
I0
tp232
(dp233
s(I25
I3
tp234
(dp235
s(I4
I11
tp236
(dp237
s(I28
I24
tp238
(dp239
s(I2
I7
tp240
(dp241
s(I5
I10
tp242
(dp243
s(I29
I29
tp244
(dp245
s(I3
I22
tp246
(dp247
s(I6
I1
tp248
(dp249
s(I30
I2
tp250
(dp251
s(I4
I17
tp252
(dp253
s(I19
I27
tp254
(dp255
s(I7
I4
tp256
(dp257
s(I31
I27
tp258
(dp259
s(I5
I20
tp260
(dp261
s(I20
I28
tp262
(dp263
s(I16
I20
tp264
(dp265
s(I6
I27
tp266
(dp267
s(I21
I17
tp268
(dp269
s(I19
I1
tp270
(dp271
s(I17
I17
tp272
(dp273
s(I22
I30
tp274
(dp275
s(I18
I22
tp276
(dp277
s(I23
I31
tp278
(dp279
s(I8
I0
tp280
(dp281
s(I9
I29
tp282
(dp283
s(I14
I26
tp284
(dp285
s(I10
I26
tp286
(dp287
s(I15
I19
tp288
(dp289
s(I11
I19
tp290
(dp291
s(I26
I25
tp292
(dp293
s(I0
I28
tp294
(dp295
s(I24
I9
tp296
(dp297
s(I12
I20
tp298
(dp299
s(I27
I20
tp300
(dp301
s(I1
I25
tp302
(dp303
s(I25
I4
tp304
(dp305
s(I13
I25
tp306
(dp307
s(I28
I23
tp308
(dp309
s(I2
I30
tp310
(dp311
s(I26
I3
tp312
(dp313
s(I29
I22
tp314
(dp315
s(I3
I31
tp316
(dp317
s(I27
I10
tp318
(dp319
s(I30
I5
tp320
(dp321
s(I4
I24
tp322
(dp323
s(I28
I13
tp324
(dp325
s(I31
I0
tp326
(dp327
s(I5
I29
tp328
(dp329
s(I20
I27
tp330
(dp331
s(I16
I11
tp332
(dp333
s(I6
I18
tp334
(dp335
s(I21
I26
tp336
(dp337
s(I19
I6
tp338
(dp339
s(I17
I10
tp340
(dp341
s(I7
I27
tp342
(dp343
s(I22
I17
tp344
(dp345
s(I20
I1
tp346
(dp347
s(I18
I17
tp348
(dp349
s(I23
I20
tp350
(dp351
s(I21
I4
tp352
(dp353
s(I8
I7
tp354
(dp355
s(I22
I11
tp356
(dp357
s(I9
I6
tp358
(dp359
s(I14
I29
tp360
(dp361
s(I10
I5
tp362
(dp363
s(I15
I24
tp364
(dp365
s(I11
I8
tp366
(dp367
s(I0
I19
tp368
(dp369
s(I24
I16
tp370
(dp371
s(I14
I7
tp372
(dp373
s(I12
I19
tp374
(dp375
s(I1
I18
tp376
(dp377
s(I25
I13
tp378
(dp379
s(I15
I6
tp380
(dp381
s(I13
I18
tp382
(dp383
s(I2
I25
tp384
(dp385
s(I26
I10
tp386
(dp387
s(I0
I9
tp388
(dp389
s(I3
I4
tp390
(dp391
s(I27
I3
tp392
(dp393
s(I30
I12
tp394
(dp395
s(I4
I7
tp396
(dp397
s(I28
I4
tp398
(dp399
s(I31
I9
tp400
(dp401
s(I5
I6
tp402
(dp403
s(I29
I9
tp404
(dp405
s(I16
I2
tp406
(dp407
s(I6
I21
tp408
(dp409
s(I30
I22
tp410
(dp411
s(I19
I15
tp412
(dp413
s(I17
I3
tp414
(dp415
s(I7
I16
tp416
(dp417
s(I31
I23
tp418
(dp419
s(I20
I8
tp420
(dp421
s(I18
I8
tp422
(dp423
s(I16
I24
tp424
(dp425
s(I21
I13
tp426
(dp427
s(I8
I14
tp428
(dp429
s(I22
I2
tp430
(dp431
s(I9
I15
tp432
(dp433
s(I23
I11
tp434
(dp435
s(I10
I12
tp436
(dp437
s(I8
I20
tp438
(dp439
s(I11
I1
tp440
(dp441
s(I9
I17
tp442
(dp443
s(I24
I23
tp444
(dp445
s(I14
I14
tp446
(dp447
s(I12
I10
tp448
(dp449
s(I10
I22
tp450
(dp451
s(I25
I22
tp452
(dp453
s(I15
I15
tp454
(dp455
s(I13
I11
tp456
(dp457
s(I2
I16
tp458
(dp459
s(I26
I21
tp460
(dp461
s(I0
I0
tp462
(dp463
s(I3
I13
tp464
(dp465
s(I27
I24
tp466
(dp467
s(I1
I13
tp468
(dp469
s(I4
I14
tp470
(dp471
s(I28
I3
tp472
(dp473
s(I2
I10
tp474
(dp475
s(I5
I15
tp476
(dp477
s(I29
I2
tp478
(dp479
s(I3
I19
tp480
(dp481
s(I6
I12
tp482
(dp483
s(I30
I25
tp484
(dp485
s(I4
I20
tp486
(dp487
s(I19
I20
tp488
(dp489
s(I17
I4
tp490
(dp491
s(I7
I9
tp492
(dp493
s(I31
I28
tp494
(dp495
s(I20
I23
tp496
(dp497
s(I18
I3
tp498
(dp499
s(I16
I31
tp500
(dp501
s(I21
I22
tp502
(dp503
s(I17
I30
tp504
(dp505
s(I22
I5
tp506
(dp507
s(I18
I29
tp508
(dp509
s(I23
I0
tp510
(dp511
s(I8
I27
tp512
(dp513
s(I11
I6
tp514
(dp515
s(I9
I26
tp516
(dp517
s(I24
I30
tp518
(dp519
s(I14
I17
tp520
(dp521
s(I12
I1
tp522
(dp523
s(I10
I17
tp524
(dp525
s(I25
I31
tp526
(dp527
s(I15
I20
tp528
(dp529
s(I13
I4
tp530
(dp531
s(I11
I28
tp532
(dp533
s(I26
I28
tp534
(dp535
s(I0
I7
tp536
(dp537
s(I24
I4
tp538
(dp539
s(I12
I31
tp540
(dp541
s(I27
I17
tp542
(dp543
s(I1
I6
tp544
(dp545
s(I25
I1
tp546
(dp547
s(I13
I30
tp548
(dp549
s(I28
I26
tp550
(dp551
s(I2
I5
tp552
(dp553
s(I26
I6
tp554
(dp555
s(I5
I8
tp556
(dp557
s(I29
I27
tp558
(dp559
s(I3
I24
tp560
(dp561
s(I6
I7
tp562
(dp563
s(I30
I0
tp564
(dp565
s(I4
I19
tp566
(dp567
s(I19
I29
tp568
(dp569
s(I7
I6
tp570
(dp571
s(I31
I5
tp572
(dp573
s(I5
I18
tp574
(dp575
s(I20
I30
tp576
(dp577
s(I16
I22
tp578
(dp579
s(I6
I25
tp580
(dp581
s(I21
I31
tp582
(dp583
s(I19
I3
tp584
(dp585
s(I17
I23
tp586
(dp587
s(I7
I28
tp588
(dp589
s(I22
I28
tp590
(dp591
s(I20
I4
tp592
(dp593
s(I18
I20
tp594
(dp595
s(I23
I25
tp596
(dp597
s(I8
I2
tp598
(dp599
s(I9
I3
tp600
(dp601
s(I14
I24
tp602
(dp603
s(I10
I24
tp604
(dp605
s(I15
I29
tp606
(dp607
s(I11
I21
tp608
(dp609
s(I0
I30
tp610
(dp611
s(I24
I11
tp612
(dp613
s(I14
I2
tp614
(dp615
s(I12
I22
tp616
(dp617
s(I27
I22
tp618
(dp619
s(I1
I31
tp620
(dp621
s(I25
I10
tp622
(dp623
s(I13
I23
tp624
(dp625
s(I28
I17
tp626
(dp627
s(I2
I28
tp628
(dp629
s(I26
I1
tp630
(dp631
s(I29
I20
tp632
(dp633
s(I3
I1
tp634
(dp635
s(I27
I12
tp636
(dp637
s(I30
I11
tp638
(dp639
s(I4
I26
tp640
(dp641
s(I28
I15
tp642
(dp643
s(I31
I2
tp644
(dp645
s(I5
I27
tp646
(dp647
s(I29
I14
tp648
(dp649
s(I16
I13
tp650
(dp651
s(I6
I16
tp652
(dp653
s(I21
I24
tp654
(dp655
s(I19
I8
tp656
(dp657
s(I17
I8
tp658
(dp659
s(I7
I21
tp660
(dp661
s(I22
I23
tp662
(dp663
s(I20
I3
tp664
(dp665
s(I18
I15
tp666
(dp667
s(I23
I22
tp668
(dp669
s(I21
I2
tp670
(dp671
s(I8
I9
tp672
(dp673
s(I22
I9
tp674
(dp675
s(I9
I4
tp676
(dp677
s(I23
I12
tp678
(dp679
s(I10
I3
tp680
(dp681
s(I15
I26
tp682
(dp683
s(I11
I10
tp684
(dp685
s(I0
I21
tp686
(dp687
s(I24
I18
tp688
(dp689
s(I14
I5
tp690
(dp691
s(I12
I13
tp692
(dp693
s(I1
I16
tp694
(dp695
s(I25
I19
tp696
(dp697
s(I15
I0
tp698
(dp699
s(I13
I16
tp700
(dp701
s(I2
I23
tp702
(dp703
s(I26
I8
tp704
(dp705
s(I0
I11
tp706
(dp707
s(I3
I6
tp708
(dp709
s(I27
I5
tp710
(dp711
s(I1
I10
tp712
(dp713
s(I4
I1
tp714
(dp715
s(I28
I6
tp716
(dp717
s(I31
I11
tp718
(dp719
s(I5
I4
tp720
(dp721
s(I29
I7
tp722
(dp723
s(I16
I4
tp724
(dp725
s(I6
I11
tp726
(dp727
s(I30
I20
tp728
(dp729
s(I19
I17
tp730
(dp731
s(I17
I1
tp732
(dp733
s(I7
I18
tp734
(dp735
s(I31
I17
tp736
(dp737
s(I20
I10
tp738
(dp739
s(I18
I6
tp740
(dp741
s(I16
I26
tp742
(dp743
s(I21
I11
tp744
(dp745
s(I17
I27
tp746
(dp747
s(I22
I0
tp748
(dp749
s(I9
I13
tp750
(dp751
s(I23
I5
tp752
(dp753
s(I10
I10
tp754
(dp755
s(I8
I22
tp756
(dp757
s(I11
I3
tp758
(dp759
s(I9
I23
tp760
(dp761
s(I24
I25
tp762
(dp763
s(I14
I12
tp764
(dp765
s(I12
I4
tp766
(dp767
s(I10
I20
tp768
(dp769
s(I25
I20
tp770
(dp771
s(I15
I9
tp772
(dp773
s(I13
I9
tp774
(dp775
s(I11
I25
tp776
(dp777
s(I26
I19
tp778
(dp779
s(I0
I2
tp780
(dp781
s(I3
I15
tp782
(dp783
s(I27
I26
tp784
(dp785
s(I1
I3
tp786
(dp787
s(I4
I8
tp788
(dp789
s(I28
I29
tp790
(dp791
s(I2
I8
tp792
(dp793
s(I5
I13
tp794
(dp795
s(I29
I0
tp796
(dp797
s(I3
I21
tp798
(dp799
s(I6
I2
tp800
(dp801
s(I30
I31
tp802
(dp803
s(I4
I22
tp804
(dp805
s(I19
I22
tp806
(dp807
s(I7
I11
tp808
(dp809
s(I31
I30
tp810
(dp811
s(I5
I23
tp812
(dp813
s(I20
I17
tp814
(dp815
s(I18
I1
tp816
(dp817
s(I16
I17
tp818
(dp819
s(I21
I20
tp820
(dp821
s(I17
I28
tp822
(dp823
s(I22
I27
tp824
(dp825
s(I18
I27
tp826
(dp827
s(I23
I2
tp828
(dp829
s(I8
I29
tp830
(dp831
s(I9
I24
tp832
(dp833
s(I14
I23
tp834
(dp835
s(I12
I3
tp836
(dp837
s(I10
I31
tp838
(dp839
s(I25
I29
tp840
(dp841
s(I15
I22
tp842
(dp843
s(I13
I2
tp844
(dp845
s(I11
I30
tp846
(dp847
s(I26
I26
tp848
(dp849
s(I0
I25
tp850
(dp851
s(I24
I6
tp852
(dp853
s(I12
I25
tp854
(dp855
s(I27
I19
tp856
(dp857
s(I1
I4
tp858
(dp859
s(I25
I7
tp860
(dp861
s(I13
I28
tp862
(dp863
s(I28
I20
tp864
(dp865
s(I2
I3
tp866
(dp867
s(I26
I4
tp868
(dp869
s(I29
I25
tp870
(dp871
s(I3
I26
tp872
(dp873
s(I27
I9
tp874
(dp875
s(I6
I5
tp876
(dp877
s(I30
I6
tp878
(dp879
s(I4
I29
tp880
(dp881
s(I19
I31
tp882
(dp883
s(I7
I0
tp884
(dp885
s(I31
I7
tp886
(dp887
s(I5
I16
tp888
(dp889
s(I20
I24
tp890
(dp891
s(I16
I8
tp892
(dp893
s(I6
I31
tp894
(dp895
s(I21
I29
tp896
(dp897
s(I19
I5
tp898
(dp899
s(I17
I21
tp900
(dp901
s(I7
I30
tp902
(dp903
s(I22
I18
tp904
(dp905
s(I20
I6
tp906
(dp907
s(I18
I18
tp908
(dp909
s(I23
I27
tp910
(dp911
s(I21
I7
tp912
(dp913
s(I8
I4
tp914
(dp915
s(I9
I1
tp916
(dp917
s(I14
I30
tp918
(dp919
s(I10
I6
tp920
(dp921
s(I15
I31
tp922
(dp923
s(I11
I23
tp924
(dp925
s(I0
I16
tp926
(dp927
s(I24
I13
tp928
(dp929
s(I14
I0
tp930
(dp931
s(I12
I16
tp932
(dp933
s(I1
I29
tp934
(dp935
s(I25
I8
tp936
(dp937
s(I15
I5
tp938
(dp939
s(I13
I21
tp940
(dp941
s(I28
I19
tp942
(dp943
s(I2
I26
tp944
(dp945
s(I26
I15
tp946
(dp947
s(I29
I18
tp948
(dp949
s(I3
I3
tp950
(dp951
s(I27
I14
tp952
(dp953
s(I30
I9
tp954
(dp955
s(I4
I4
tp956
(dp957
s(I28
I9
tp958
(dp959
s(I31
I12
tp960
(dp961
s(I5
I25
tp962
(dp963
s(I29
I12
tp964
(dp965
s(I16
I15
tp966
(dp967
s(I6
I22
tp968
(dp969
s(I30
I19
tp970
(dp971
s(I19
I10
tp972
(dp973
s(I17
I14
tp974
(dp975
s(I7
I23
tp976
(dp977
s(I22
I21
tp978
(dp979
s(I20
I13
tp980
(dp981
s(I18
I13
tp982
(dp983
s(I23
I16
tp984
(dp985
s(I21
I0
tp986
(dp987
s(I8
I11
tp988
(dp989
s(I22
I15
tp990
(dp991
s(I9
I10
tp992
(dp993
s(I23
I14
tp994
(dp995
s(I10
I1
tp996
(dp997
s(I8
I17
tp998
(dp999
s(I11
I12
tp1000
(dp1001
s(I0
I23
tp1002
(dp1003
s(I24
I20
tp1004
(dp1005
s(I14
I11
tp1006
(dp1007
s(I12
I15
tp1008
(dp1009
s(I1
I22
tp1010
(dp1011
s(I25
I17
tp1012
(dp1013
s(I15
I2
tp1014
(dp1015
s(I13
I14
tp1016
(dp1017
s(I2
I21
tp1018
(dp1019
s(I26
I22
tp1020
(dp1021
s(I0
I13
tp1022
(dp1023
s(I3
I8
tp1024
(dp1025
s(I27
I7
tp1026
(dp1027
s(I1
I8
tp1028
(dp1029
s(I4
I3
tp1030
(dp1031
s(I28
I0
tp1032
(dp1033
s(I2
I15
tp1034
(dp1035
s(I5
I2
tp1036
(dp1037
s(I29
I5
tp1038
(dp1039
s(I16
I6
tp1040
(dp1041
s(I6
I9
tp1042
(dp1043
s(I30
I26
tp1044
(dp1045
s(I19
I19
tp1046
(dp1047
s(I17
I7
tp1048
(dp1049
s(I7
I12
tp1050
(dp1051
s(I31
I19
tp1052
(dp1053
s(I20
I20
tp1054
(dp1055
s(I18
I4
tp1056
(dp1057
s(I16
I28
tp1058
(dp1059
s(I21
I9
tp1060
(dp1061
s(I17
I25
tp1062
(dp1063
s(I22
I6
tp1064
(dp1065
s(I18
I30
tp1066
(dp1067
s(I23
I7
tp1068
(dp1069
s(I10
I8
tp1070
(dp1071
s(I8
I24
tp1072
(dp1073
s(I11
I5
tp1074
(dp1075
s(I9
I21
tp1076
(dp1077
s(I24
I27
tp1078
(dp1079
s(I14
I18
tp1080
(dp1081
s(I12
I6
tp1082
(dp1083
s(I10
I18
tp1084
(dp1085
s(I25
I26
tp1086
(dp1087
s(I15
I11
tp1088
(dp1089
s(I13
I7
tp1090
(dp1091
s(I11
I27
tp1092
(dp1093
s(I26
I17
tp1094
(dp1095
s(I0
I4
tp1096
(dp1097
s(I24
I1
tp1098
(dp1099
s(I12
I28
tp1100
(dp1101
s(I27
I28
tp1102
(dp1103
s(I1
I1
tp1104
(dp1105
s(I4
I10
tp1106
(dp1107
s(I28
I31
tp1108
(dp1109
s(I2
I6
tp1110
(dp1111
s(I5
I11
tp1112
(dp1113
s(I29
I30
tp1114
(dp1115
s(I3
I23
tp1116
(dp1117
s(I6
I0
tp1118
(dp1119
s(I30
I29
tp1120
(dp1121
s(I4
I16
tp1122
(dp1123
s(I19
I24
tp1124
(dp1125
s(I7
I5
tp1126
(dp1127
s(I31
I24
tp1128
(dp1129
s(I5
I21
tp1130
(dp1131
s(I20
I19
tp1132
(dp1133
s(I16
I19
tp1134
(dp1135
s(I6
I26
tp1136
(dp1137
s(I21
I18
tp1138
(dp1139
s(I17
I18
tp1140
(dp1141
s(I22
I25
tp1142
(dp1143
s(I18
I25
tp1144
(dp1145
s(I23
I28
tp1146
(dp1147
s(I8
I31
tp1148
(dp1149
s(I9
I30
tp1150
(dp1151
s(I14
I21
tp1152
(dp1153
s(I10
I29
tp1154
(dp1155
s(I15
I16
tp1156
(dp1157
s(I13
I0
tp1158
(dp1159
s(I11
I16
tp1160
(dp1161
s(I26
I24
tp1162
(dp1163
s(I0
I27
tp1164
(dp1165
s(I24
I8
tp1166
(dp1167
s(I12
I27
tp1168
(dp1169
s(I27
I21
tp1170
(dp1171
s(I1
I26
tp1172
(dp1173
s(I25
I5
tp1174
(dp1175
s(I13
I26
tp1176
(dp1177
s(I28
I22
tp1178
(dp1179
s(I2
I1
tp1180
(dp1181
s(I26
I2
tp1182
(dp1183
s(I29
I23
tp1184
(dp1185
s(I3
I28
tp1186
(dp1187
s(I27
I11
tp1188
(dp1189
s(I30
I4
tp1190
(dp1191
s(I4
I31
tp1192
(dp1193
s(I28
I12
tp1194
(dp1195
s(I7
I2
tp1196
(dp1197
s(I31
I1
tp1198
(dp1199
s(I5
I30
tp1200
(dp1201
s(I20
I26
tp1202
(dp1203
s(I16
I10
tp1204
(dp1205
s(I6
I29
tp1206
(dp1207
s(I21
I27
tp1208
(dp1209
s(I19
I7
tp1210
(dp1211
s(I17
I11
tp1212
(dp1213
s(I7
I24
tp1214
(dp1215
s(I22
I16
tp1216
(dp1217
s(I20
I0
tp1218
(dp1219
s(I18
I16
tp1220
(dp1221
s(I23
I21
tp1222
(dp1223
s(I21
I5
tp1224
(dp1225
s(I8
I6
tp1226
(dp1227
s(I22
I10
tp1228
(dp1229
s(I9
I7
tp1230
(dp1231
s(I14
I28
tp1232
(dp1233
s(I10
I4
tp1234
(dp1235
s(I15
I25
tp1236
(dp1237
s(I11
I9
tp1238
(dp1239
s(I0
I18
tp1240
(dp1241
s(I24
I15
tp1242
(dp1243
s(I14
I6
tp1244
(dp1245
s(I12
I18
tp1246
(dp1247
s(I1
I19
tp1248
(dp1249
s(I25
I14
tp1250
(dp1251
s(I15
I7
tp1252
(dp1253
s(I13
I19
tp1254
(dp1255
s(I2
I24
tp1256
(dp1257
s(I26
I13
tp1258
(dp1259
s(I0
I8
tp1260
(dp1261
s(I29
I16
tp1262
(dp1263
s(I3
I5
tp1264
(dp1265
s(I27
I0
tp1266
(dp1267
s(I30
I15
tp1268
(dp1269
s(I4
I6
tp1270
(dp1271
s(I28
I11
tp1272
(dp1273
s(I31
I14
tp1274
(dp1275
s(I5
I7
tp1276
(dp1277
s(I29
I10
tp1278
(dp1279
s(I16
I1
tp1280
(dp1281
s(I6
I20
tp1282
(dp1283
s(I30
I17
tp1284
(dp1285
s(I19
I12
tp1286
(dp1287
s(I17
I12
tp1288
(dp1289
s(I7
I17
tp1290
(dp1291
s(I31
I20
tp1292
(dp1293
s(I20
I15
tp1294
(dp1295
s(I18
I11
tp1296
(dp1297
s(I23
I18
tp1298
(dp1299
s(I21
I14
tp1300
(dp1301
s(I8
I13
tp1302
(dp1303
s(I22
I13
tp1304
(dp1305
s(I9
I8
tp1306
(dp1307
s(I23
I8
tp1308
(dp1309
s(I10
I15
tp1310
(dp1311
s(I8
I19
tp1312
(dp1313
s(I11
I14
tp1314
(dp1315
s(I9
I18
tp1316
(dp1317
s(I24
I22
tp1318
(dp1319
s(I14
I9
tp1320
(dp1321
s(I12
I9
tp1322
(dp1323
s(I1
I20
tp1324
(dp1325
s(I25
I23
tp1326
(dp1327
s(I15
I12
tp1328
(dp1329
s(I13
I12
tp1330
(dp1331
s(I2
I19
tp1332
(dp1333
s(I26
I20
tp1334
(dp1335
s(I0
I15
tp1336
(dp1337
s(I3
I10
tp1338
(dp1339
s(I27
I25
tp1340
(dp1341
s(I1
I14
tp1342
(dp1343
s(I4
I13
tp1344
(dp1345
s(I28
I2
tp1346
(dp1347
s(I2
I13
tp1348
(dp1349
s(I5
I0
tp1350
(dp1351
s(I29
I3
tp1352
(dp1353
s(I3
I16
tp1354
(dp1355
s(I6
I15
tp1356
(dp1357
s(I30
I24
tp1358
(dp1359
s(I19
I21
tp1360
(dp1361
s(I17
I5
tp1362
(dp1363
s(I7
I14
tp1364
(dp1365
s(I31
I29
tp1366
(dp1367
s(I20
I22
tp1368
(dp1369
s(I18
I2
tp1370
(dp1371
s(I16
I30
tp1372
(dp1373
s(I21
I23
tp1374
(dp1375
s(I17
I31
tp1376
(dp1377
s(I22
I4
tp1378
(dp1379
s(I18
I28
tp1380
(dp1381
s(I23
I1
tp1382
(dp1383
s(I8
I26
tp1384
(dp1385
s(I11
I7
tp1386
(dp1387
s(I9
I27
tp1388
(dp1389
s(I24
I29
tp1390
(dp1391
s(I14
I16
tp1392
(dp1393
s(I12
I0
tp1394
(dp1395
s(I10
I16
tp1396
(dp1397
s(I25
I24
tp1398
(dp1399
s(I15
I21
tp1400
(dp1401
s(I13
I5
tp1402
(dp1403
s(I11
I29
tp1404
(dp1405
s(I26
I31
tp1406
(dp1407
s(I0
I6
tp1408
(dp1409
s(I24
I3
tp1410
(dp1411
s(I12
I30
tp1412
(dp1413
s(I27
I30
tp1414
(dp1415
s(I1
I7
tp1416
(dp1417
s(I25
I2
tp1418
(dp1419
s(I13
I31
tp1420
(dp1421
s(I28
I25
tp1422
(dp1423
s(I2
I4
tp1424
(dp1425
s(I5
I9
tp1426
(dp1427
s(I29
I28
tp1428
(dp1429
s(I3
I25
tp1430
(dp1431
s(I6
I6
tp1432
(dp1433
s(I30
I3
tp1434
(dp1435
s(I4
I18
tp1436
(dp1437
s(I19
I26
tp1438
(dp1439
s(I7
I7
tp1440
(dp1441
s(I31
I26
tp1442
(dp1443
s(I5
I19
tp1444
(dp1445
s(I20
I29
tp1446
(dp1447
s(I16
I21
tp1448
(dp1449
s(I6
I24
tp1450
(dp1451
s(I21
I16
tp1452
(dp1453
s(I19
I0
tp1454
(dp1455
s(I17
I16
tp1456
(dp1457
s(I7
I29
tp1458
(dp1459
s(I22
I31
tp1460
(dp1461
s(I18
I23
tp1462
(dp1463
s(I23
I30
tp1464
(dp1465
s(I8
I1
tp1466
(dp1467
s(I9
I28
tp1468
(dp1469
s(I14
I27
tp1470
(dp1471
s(I10
I27
tp1472
(dp1473
s(I15
I18
tp1474
(dp1475
s(I11
I18
tp1476
(dp1477
s(I0
I29
tp1478
(dp1479
s(I24
I10
tp1480
(dp1481
s(I12
I21
tp1482
(dp1483
s(I27
I23
tp1484
(dp1485
s(I1
I24
tp1486
(dp1487
s(I25
I11
tp1488
(dp1489
s(I13
I24
tp1490
(dp1491
s(I28
I16
tp1492
(dp1493
s(I2
I31
tp1494
(dp1495
s(I26
I0
tp1496
(dp1497
s(I29
I21
tp1498
(dp1499
s(I3
I30
tp1500
(dp1501
s(I27
I13
tp1502
(dp1503
s(I30
I10
tp1504
(dp1505
s(I4
I25
tp1506
(dp1507
s(I28
I14
tp1508
(dp1509
s(I31
I3
tp1510
(dp1511
s(I5
I28
tp1512
(dp1513
s(I29
I15
tp1514
(dp1515
s(I16
I12
tp1516
(dp1517
s(I6
I19
tp1518
(dp1519
s(I21
I25
tp1520
(dp1521
s(I19
I9
tp1522
(dp1523
s(I17
I9
tp1524
(dp1525
s(I7
I26
tp1526
(dp1527
s(I22
I22
tp1528
(dp1529
s(I20
I2
tp1530
(dp1531
s(I18
I14
tp1532
(dp1533
s(I23
I23
tp1534
(dp1535
s(I21
I3
tp1536
(dp1537
s(I8
I8
tp1538
(dp1539
s(I22
I8
tp1540
(dp1541
s(I9
I5
tp1542
(dp1543
s(I23
I13
tp1544
(dp1545
s(I10
I2
tp1546
(dp1547
s(I15
I27
tp1548
(dp1549
s(I11
I11
tp1550
(dp1551
s(I0
I20
tp1552
(dp1553
s(I24
I17
tp1554
(dp1555
s(I14
I4
tp1556
(dp1557
s(I12
I12
tp1558
(dp1559
s(I1
I17
tp1560
(dp1561
s(I25
I12
tp1562
(dp1563
s(I15
I1
tp1564
(dp1565
s(I13
I17
tp1566
(dp1567
s(I2
I22
tp1568
(dp1569
s(I26
I11
tp1570
(dp1571
s(I0
I10
tp1572
(dp1573
s(I3
I7
tp1574
(dp1575
s(I27
I2
tp1576
(dp1577
s(I1
I11
tp1578
(dp1579
s(I30
I13
tp1580
(dp1581
s(I4
I0
tp1582
(dp1583
s(I28
I5
tp1584
(dp1585
s(I31
I8
tp1586
(dp1587
s(I5
I5
tp1588
(dp1589
s(I29
I8
tp1590
(dp1591
s(I16
I3
tp1592
(dp1593
s(I6
I10
tp1594
(dp1595
s(I30
I23
tp1596
(dp1597
s(I19
I14
tp1598
(dp1599
s(I17
I2
tp1600
(dp1601
s(I7
I19
tp1602
(dp1603
s(I31
I22
tp1604
(dp1605
s(I20
I9
tp1606
(dp1607
s(I18
I9
tp1608
(dp1609
s(I16
I25
tp1610
(dp1611
s(I21
I12
tp1612
(dp1613
s(I8
I15
tp1614
(dp1615
s(I22
I3
tp1616
(dp1617
s(I9
I14
tp1618
(dp1619
s(I23
I10
tp1620
(dp1621
s(I10
I13
tp1622
(dp1623
s(I8
I21
tp1624
(dp1625
s(I11
I0
tp1626
(dp1627
s(I9
I16
tp1628
(dp1629
s(I24
I24
tp1630
(dp1631
s(I14
I15
tp1632
(dp1633
s(I12
I11
tp1634
(dp1635
s(I10
I23
tp1636
(dp1637
s(I25
I21
tp1638
(dp1639
s(I15
I14
tp1640
(dp1641
s(I13
I10
tp1642
(dp1643
s(I2
I17
tp1644
(dp1645
s(I26
I18
tp1646
(dp1647
s(I0
I1
tp1648
(dp1649
s(I3
I12
tp1650
(dp1651
s(I27
I27
tp1652
(dp1653
s(I1
I12
tp1654
(dp1655
s(I4
I15
tp1656
(dp1657
s(I28
I28
tp1658
(dp1659
s(I2
I11
tp1660
(dp1661
s(I5
I14
tp1662
(dp1663
s(I29
I1
tp1664
(dp1665
s(I3
I18
tp1666
(dp1667
s(I6
I13
tp1668
(dp1669
s(I30
I30
tp1670
(dp1671
s(I4
I21
tp1672
(dp1673
s(I19
I23
tp1674
(dp1675
s(I7
I8
tp1676
(dp1677
s(I31
I31
tp1678
(dp1679
s(I20
I16
tp1680
(dp1681
s(I18
I0
tp1682
(dp1683
s(I16
I16
tp1684
(dp1685
s(I21
I21
tp1686
(dp1687
s(I17
I29
tp1688
(dp1689
s(I22
I26
tp1690
(dp1691
s(I18
I26
tp1692
(dp1693
s(I23
I3
tp1694
(dp1695
s(I8
I28
tp1696
(dp1697
s(I9
I25
tp1698
(dp1699
s(I24
I31
tp1700
(dp1701
s(I14
I22
tp1702
(dp1703
s(I12
I2
tp1704
(dp1705
s(I10
I30
tp1706
(dp1707
s(I25
I30
tp1708
(dp1709
s(I15
I23
tp1710
(dp1711
s(I13
I3
tp1712
(dp1713
s(I11
I31
tp1714
(dp1715
s(I26
I29
tp1716
(dp1717
s(I0
I24
tp1718
(dp1719
s(I24
I5
tp1720
(dp1721
s(I12
I24
tp1722
(dp1723
s(I27
I16
tp1724
(dp1725
s(I1
I5
tp1726
(dp1727
s(I25
I0
tp1728
(dp1729
s(I13
I29
tp1730
(dp1731
s(I28
I27
tp1732
(dp1733
s(I2
I2
tp1734
(dp1735
s(I26
I7
tp1736
(dp1737
s(I29
I26
tp1738
(dp1739
s(I3
I27
tp1740
(dp1741
s(I6
I4
tp1742
(dp1743
s(I30
I1
tp1744
(dp1745
s(I4
I28
tp1746
(dp1747
s(I19
I28
tp1748
(dp1749
s(I7
I1
tp1750
(dp1751
s(I31
I4
tp1752
(dp1753
s(I5
I17
tp1754
(dp1755
s(I20
I31
tp1756
(dp1757
s(I16
I23
tp1758
(dp1759
s(I6
I30
tp1760
(dp1761
s(I21
I30
tp1762
(dp1763
s(I19
I2
tp1764
(dp1765
s(I17
I22
tp1766
(dp1767
s(I7
I31
tp1768
(dp1769
s(I22
I29
tp1770
(dp1771
s(I20
I5
tp1772
(dp1773
s(I18
I21
tp1774
(dp1775
s(I23
I24
tp1776
(dp1777
s(I8
I3
tp1778
(dp1779
s(I9
I2
tp1780
(dp1781
s(I14
I25
tp1782
(dp1783
s(I10
I25
tp1784
(dp1785
s(I15
I28
tp1786
(dp1787
s(I11
I20
tp1788
(dp1789
s(I0
I31
tp1790
(dp1791
s(I24
I12
tp1792
(dp1793
s(I14
I3
tp1794
(dp1795
s(I12
I23
tp1796
(dp1797
s(I1
I30
tp1798
(dp1799
s(I25
I9
tp1800
(dp1801
s(I13
I22
tp1802
(dp1803
s(I28
I18
tp1804
(dp1805
s(I2
I29
tp1806
(dp1807
s(I26
I14
tp1808
(dp1809
s(I29
I19
tp1810
(dp1811
s(I3
I0
tp1812
(dp1813
s(I27
I15
tp1814
(dp1815
s(I30
I8
tp1816
(dp1817
s(I4
I27
tp1818
(dp1819
s(I28
I8
tp1820
(dp1821
s(I31
I13
tp1822
(dp1823
s(I5
I26
tp1824
(dp1825
s(I29
I13
tp1826
(dp1827
s(I16
I14
tp1828
(dp1829
s(I6
I17
tp1830
(dp1831
s(I30
I18
tp1832
(dp1833
s(I19
I11
tp1834
(dp1835
s(I17
I15
tp1836
(dp1837
s(I7
I20
tp1838
(dp1839
s(I22
I20
tp1840
(dp1841
s(I20
I12
tp1842
(dp1843
s(I18
I12
tp1844
(dp1845
s(I23
I17
tp1846
(dp1847
s(I21
I1
tp1848
(dp1849
s(I8
I10
tp1850
(dp1851
s(I22
I14
tp1852
(dp1853
s(I9
I11
tp1854
(dp1855
s(I23
I15
tp1856
(dp1857
s(I10
I0
tp1858
(dp1859
s(I8
I16
tp1860
(dp1861
s(I11
I13
tp1862
(dp1863
s(I0
I22
tp1864
(dp1865
s(I24
I19
tp1866
(dp1867
s(I14
I10
tp1868
(dp1869
s(I12
I14
tp1870
(dp1871
s(I1
I23
tp1872
(dp1873
s(I25
I18
tp1874
(dp1875
s(I15
I3
tp1876
(dp1877
s(I13
I15
tp1878
(dp1879
s(I2
I20
tp1880
(dp1881
s(I26
I9
tp1882
(dp1883
s(I0
I12
tp1884
(dp1885
s(I3
I9
tp1886
(dp1887
s(I27
I4
tp1888
(dp1889
s(I1
I9
tp1890
(dp1891
s(I4
I2
tp1892
(dp1893
s(I28
I7
tp1894
(dp1895
s(I2
I14
tp1896
(dp1897
s(I31
I10
tp1898
(dp1899
s(I5
I3
tp1900
(dp1901
s(I29
I6
tp1902
(dp1903
s(I16
I5
tp1904
(dp1905
s(I6
I8
tp1906
(dp1907
s(I30
I21
tp1908
(dp1909
s(I19
I16
tp1910
(dp1911
s(I17
I0
tp1912
(dp1913
s(I7
I13
tp1914
(dp1915
s(I31
I16
tp1916
(dp1917
s(I20
I11
tp1918
(dp1919
s(I18
I7
tp1920
(dp1921
s(I16
I27
tp1922
(dp1923
s(I21
I10
tp1924
(dp1925
s(I17
I26
tp1926
(dp1927
s(I22
I1
tp1928
(dp1929
s(I9
I12
tp1930
(dp1931
s(I23
I4
tp1932
(dp1933
s(I10
I11
tp1934
(dp1935
s(I8
I23
tp1936
(dp1937
s(I11
I2
tp1938
(dp1939
s(I9
I22
tp1940
(dp1941
s(I24
I26
tp1942
(dp1943
s(I14
I13
tp1944
(dp1945
s(I12
I5
tp1946
(dp1947
s(I10
I21
tp1948
(dp1949
s(I25
I27
tp1950
(dp1951
s(I15
I8
tp1952
(dp1953
s(I13
I8
tp1954
(dp1955
s(I11
I24
tp1956
(dp1957
s(I26
I16
tp1958
(dp1959
s(I0
I3
tp1960
(dp1961
s(I24
I0
tp1962
(dp1963
s(I3
I14
tp1964
(dp1965
s(I27
I29
tp1966
(dp1967
s(I1
I2
tp1968
(dp1969
s(I4
I9
tp1970
(dp1971
s(I28
I30
tp1972
(dp1973
s(I2
I9
tp1974
(dp1975
s(I5
I12
tp1976
(dp1977
s(I29
I31
tp1978
(dp1979
s(I3
I20
tp1980
(dp1981
s(I6
I3
tp1982
(dp1983
s(I30
I28
tp1984
(dp1985
s(I4
I23
tp1986
(dp1987
s(I19
I25
tp1988
(dp1989
s(I7
I10
tp1990
(dp1991
s(I31
I25
tp1992
(dp1993
s(I5
I22
tp1994
(dp1995
s(I20
I18
tp1996
(dp1997
s(I16
I18
tp1998
(dp1999
s(I21
I19
tp2000
(dp2001
s(I17
I19
tp2002
(dp2003
s(I22
I24
tp2004
(dp2005
s(I18
I24
tp2006
(dp2007
s(I23
I29
tp2008
(dp2009
s(I8
I30
tp2010
(dp2011
s(I9
I31
tp2012
(dp2013
s(I14
I20
tp2014
(dp2015
s(I10
I28
tp2016
(dp2017
s(I25
I28
tp2018
(dp2019
s(I15
I17
tp2020
(dp2021
s(I13
I1
tp2022
(dp2023
s(I11
I17
tp2024
(dp2025
s(I26
I27
tp2026
(dp2027
s(I0
I26
tp2028
(dp2029
s(I24
I7
tp2030
(dp2031
s(I12
I26
tp2032
(dp2033
s(I27
I18
tp2034
(dp2035
s(I1
I27
tp2036
(dp2037
s(I25
I6
tp2038
(dp2039
s(I13
I27
tp2040
(dp2041
s(I28
I21
tp2042
(dp2043
s(I2
I0
tp2044
(dp2045
s(I26
I5
tp2046
(dp2047
s(I29
I24
tp2048
(dp2049
s(I3
I29
tp2050
(dp2051
s(I27
I8
tp2052
(dp2053
s(I30
I7
tp2054
(dp2055
s(I4
I30
tp2056
(dp2057
s(I19
I30
tp2058
(dp2059
ssS'graph'
p2060
(dp2061
sS'edge'
p2062
(dp2063
g12
(dp2064
(I6
I19
tp2065
(dp2066
s(I23
I4
tp2067
(dp2068
s(I8
I19
tp2069
(dp2070
s(I23
I2
tp2071
(dp2072
ssg14
(dp2073
(I15
I5
tp2074
(dp2075
s(I15
I7
tp2076
(dp2077
s(I30
I22
tp2078
(dp2079
ssg16
(dp2080
(I21
I30
tp2081
(dp2082
s(I4
I15
tp2083
(dp2084
s(I6
I15
tp2085
(dp2086
ssg18
(dp2087
(I4
I26
tp2088
(dp2089
s(I19
I9
tp2090
(dp2091
s(I21
I9
tp2092
(dp2093
s(I4
I24
tp2094
(dp2095
ssg20
(dp2096
(I0
I8
tp2097
(dp2098
s(I17
I25
tp2099
(dp2100
s(I0
I10
tp2101
(dp2102
s(I15
I25
tp2103
(dp2104
ssg22
(dp2105
(I7
I12
tp2106
(dp2107
s(I22
I27
tp2108
(dp2109
s(I5
I12
tp2110
(dp2111
s(I22
I29
tp2112
(dp2113
ssg24
(dp2114
(I22
I12
tp2115
(dp2116
s(I20
I12
tp2117
(dp2118
s(I5
I29
tp2119
(dp2120
s(I5
I27
tp2121
(dp2122
ssg26
(dp2123
(I18
I20
tp2124
(dp2125
s(I20
I20
tp2126
(dp2127
s(I3
I3
tp2128
(dp2129
s(I3
I5
tp2130
(dp2131
ssg28
(dp2132
(I1
I21
tp2133
(dp2134
s(I1
I19
tp2135
(dp2136
s(I18
I4
tp2137
(dp2138
s(I16
I4
tp2139
(dp2140
ssg30
(dp2141
(I8
I9
tp2142
(dp2143
s(I6
I9
tp2144
(dp2145
s(I23
I24
tp2146
(dp2147
s(I23
I26
tp2148
(dp2149
ssg32
(dp2150
(I23
I3
tp2151
(dp2152
s(I6
I20
tp2153
(dp2154
s(I6
I18
tp2155
(dp2156
s(I21
I3
tp2157
(dp2158
ssg34
(dp2159
(I19
I23
tp2160
(dp2161
s(I21
I23
tp2162
(dp2163
s(I4
I6
tp2164
(dp2165
s(I4
I8
tp2166
(dp2167
ssg36
(dp2168
(I17
I3
tp2169
(dp2170
s(I19
I3
tp2171
(dp2172
s(I2
I20
tp2173
(dp2174
s(I2
I18
tp2175
(dp2176
ssg38
(dp2177
(I7
I27
tp2178
(dp2179
s(I22
I10
tp2180
(dp2181
s(I24
I10
tp2182
(dp2183
s(I7
I25
tp2184
g2149
ssg40
(dp2185
(I22
I22
tp2186
(dp2187
s(I5
I7
tp2188
(dp2189
s(I5
I5
tp2190
(dp2191
s(I20
I22
tp2192
(dp2193
ssg42
(dp2194
(I24
I4
tp2195
(dp2196
s(I9
I21
tp2197
(dp2198
s(I7
I21
tp2199
(dp2200
s(I24
I6
tp2201
(dp2202
ssg44
(dp2203
(I10
I16
tp2204
(dp2205
s(I8
I16
tp2206
(dp2207
s(I25
I1
tp2208
(dp2209
ssg46
(dp2210
(I13
I15
tp2211
(dp2212
s(I15
I15
tp2213
(dp2214
s(I30
I30
tp2215
(dp2216
ssg48
(dp2217
(I11
I23
tp2218
(dp2219
s(I26
I6
tp2220
(dp2221
s(I26
I8
tp2222
(dp2223
s(I9
I23
tp2224
(dp2225
ssg50
(dp2226
(I16
I14
tp2227
(dp2228
s(I31
I29
tp2229
(dp2230
s(I31
I31
tp2231
(dp2232
s(I14
I14
tp2233
(dp2234
ssg52
(dp2235
(I27
I23
tp2236
(dp2237
s(I10
I6
tp2238
(dp2239
s(I12
I6
tp2240
(dp2241
s(I27
I21
tp2242
(dp2243
ssg54
(dp2244
(I16
I16
tp2245
(dp2246
s(I1
I1
tp2247
(dp2248
s(I16
I18
tp2249
(dp2250
ssg56
(dp2251
(I25
I30
tp2252
(dp2253
s(I23
I30
tp2254
(dp2255
s(I8
I13
tp2256
(dp2257
s(I8
I15
tp2258
(dp2259
ssg58
(dp2260
(I13
I17
tp2261
(dp2262
s(I30
I2
tp2263
(dp2264
s(I30
I0
tp2265
(dp2266
s(I15
I17
tp2267
(dp2268
ssg60
(dp2269
(I13
I1
tp2270
(dp2271
s(I11
I1
tp2272
(dp2273
s(I28
I16
tp2274
(dp2275
s(I28
I18
tp2276
(dp2277
ssg62
(dp2278
(I17
I29
tp2279
(dp2280
s(I17
I27
tp2281
(dp2282
s(I2
I12
tp2283
(dp2284
s(I0
I12
tp2285
(dp2286
ssg64
(dp2287
(I26
I31
tp2288
(dp2289
s(I9
I16
tp2290
(dp2291
s(I9
I14
tp2292
(dp2293
s(I24
I31
tp2294
(dp2295
ssg66
(dp2296
(I14
I20
tp2297
(dp2298
s(I31
I3
tp2299
(dp2300
s(I31
I5
tp2301
(dp2302
s(I16
I20
tp2303
(dp2304
ssg68
(dp2305
(I14
I4
tp2306
(dp2307
s(I12
I4
tp2308
(dp2309
s(I29
I21
tp2310
(dp2311
s(I29
I19
tp2312
(dp2313
ssg70
(dp2314
(I1
I11
tp2315
(dp2316
s(I18
I26
tp2317
(dp2318
s(I3
I11
tp2319
(dp2320
s(I18
I28
tp2321
(dp2322
ssg72
(dp2323
(I27
I28
tp2324
(dp2325
s(I10
I13
tp2326
(dp2327
s(I10
I11
tp2328
(dp2329
s(I25
I28
tp2330
(dp2331
ssg74
(dp2332
(I28
I1
tp2333
(dp2334
s(I30
I1
tp2335
(dp2336
s(I13
I18
tp2337
(dp2338
s(I13
I16
tp2339
(dp2340
ssg76
(dp2341
(I4
I18
tp2342
(dp2343
s(I19
I1
tp2344
(dp2345
s(I19
I3
tp2346
(dp2347
s(I2
I18
tp2348
(dp2349
ssg78
(dp2350
(I11
I0
tp2351
(dp2352
s(I11
I2
tp2353
(dp2354
s(I28
I17
tp2355
(dp2356
s(I26
I17
tp2357
(dp2358
ssg80
(dp2359
(I29
I30
tp2360
(dp2361
s(I31
I30
tp2362
(dp2363
s(I14
I15
tp2364
(dp2365
s(I14
I13
tp2366
(dp2367
ssg82
(dp2368
(I20
I4
tp2369
(dp2370
s(I5
I21
tp2371
(dp2372
s(I20
I6
tp2373
(dp2374
s(I3
I21
tp2375
(dp2376
ssg84
(dp2377
(I29
I26
tp2378
(dp2379
s(I27
I26
tp2380
(dp2381
s(I12
I9
tp2382
(dp2383
s(I12
I11
tp2384
(dp2385
ssg86
(dp2386
(I30
I31
tp2387
(dp2388
s(I15
I14
tp2389
(dp2390
s(I15
I16
tp2391
(dp2392
ssg88
(dp2393
(I21
I25
tp2394
(dp2395
s(I21
I23
tp2396
(dp2397
s(I6
I8
tp2398
(dp2399
s(I4
I8
tp2400
(dp2401
ssg90
(dp2402
(I30
I27
tp2403
(dp2404
s(I13
I12
tp2405
(dp2406
s(I13
I10
tp2407
(dp2408
s(I28
I27
tp2409
(dp2410
ssg92
(dp2411
(I0
I1
tp2412
(dp2413
s(I17
I16
tp2414
(dp2415
s(I15
I16
tp2416
(dp2417
ssg94
(dp2418
(I22
I22
tp2419
(dp2420
s(I5
I7
tp2421
(dp2422
s(I7
I7
tp2423
(dp2424
s(I22
I24
tp2425
(dp2426
ssg96
(dp2427
(I31
I0
tp2428
(dp2429
s(I14
I17
tp2430
(dp2431
s(I14
I15
tp2432
(dp2433
s(I29
I0
tp2434
(dp2435
ssg98
(dp2436
(I20
I29
tp2437
(dp2438
s(I18
I29
tp2439
(dp2440
s(I3
I12
tp2441
(dp2442
s(I3
I14
tp2443
(dp2444
ssg100
(dp2445
(I16
I29
tp2446
(dp2447
s(I18
I29
tp2448
(dp2449
s(I1
I14
tp2450
(dp2451
s(I1
I12
tp2452
(dp2453
ssg102
(dp2454
(I8
I6
tp2455
(dp2456
s(I23
I21
tp2457
(dp2458
s(I23
I23
tp2459
(dp2460
s(I6
I6
tp2461
(dp2462
ssg104
(dp2463
(I15
I20
tp2464
(dp2465
s(I15
I22
tp2466
(dp2467
s(I30
I5
tp2468
(dp2469
ssg106
(dp2470
(I4
I13
tp2471
(dp2472
s(I21
I30
tp2473
(dp2474
s(I4
I15
tp2475
(dp2476
s(I19
I30
tp2477
(dp2478
ssg108
(dp2479
(I17
I26
tp2480
(dp2481
s(I19
I26
tp2482
(dp2483
s(I2
I11
tp2484
(dp2485
s(I2
I9
tp2486
(dp2487
ssg110
(dp2488
(I7
I20
tp2489
(dp2490
s(I22
I3
tp2491
(dp2492
s(I24
I3
tp2493
(dp2494
s(I7
I18
tp2495
(dp2496
ssg112
(dp2497
(I5
I14
tp2498
(dp2499
s(I20
I31
tp2500
(dp2501
s(I22
I31
tp2502
(dp2503
s(I5
I16
tp2504
(dp2505
ssg114
(dp2506
(I7
I28
tp2507
(dp2508
s(I24
I11
tp2509
(dp2510
s(I24
I13
tp2511
(dp2512
s(I9
I28
tp2513
(dp2514
ssg116
(dp2515
(I6
I11
tp2516
(dp2517
s(I23
I28
tp2518
(dp2519
s(I21
I28
tp2520
g2116
s(I6
I13
tp2521
(dp2522
ssg118
(dp2523
(I8
I25
tp2524
(dp2525
s(I25
I10
tp2526
(dp2527
s(I25
I8
tp2528
(dp2529
s(I10
I25
tp2530
(dp2531
ssg120
(dp2532
(I24
I25
tp2533
(dp2534
s(I22
I25
tp2535
(dp2536
s(I7
I8
tp2537
(dp2538
s(I7
I10
tp2539
(dp2540
ssg122
(dp2541
(I26
I15
tp2542
(dp2543
s(I26
I13
tp2544
(dp2545
s(I9
I30
tp2546
(dp2547
s(I11
I30
tp2548
(dp2549
ssg124
(dp2550
(I9
I2
tp2551
(dp2552
s(I24
I17
tp2553
(dp2554
s(I24
I19
tp2555
(dp2556
s(I7
I2
tp2557
(dp2558
ssg126
(dp2559
(I10
I31
tp2560
(dp2561
s(I27
I16
tp2562
(dp2563
s(I12
I31
tp2564
(dp2565
s(I27
I14
tp2566
(dp2567
ssg128
(dp2568
(I25
I18
tp2569
(dp2570
s(I8
I3
tp2571
(dp2572
s(I10
I3
tp2573
(dp2574
s(I25
I20
tp2575
(dp2576
ssg130
(dp2577
(I25
I5
tp2578
(dp2579
s(I8
I22
tp2580
(dp2581
s(I23
I5
tp2582
(dp2583
s(I8
I20
tp2584
(dp2585
ssg132
(dp2586
(I30
I7
tp2587
(dp2588
s(I30
I9
tp2589
(dp2590
s(I15
I24
tp2591
(dp2592
s(I13
I24
tp2593
(dp2594
ssg134
(dp2595
(I11
I24
tp2596
(dp2597
s(I28
I7
tp2598
(dp2599
s(I28
I9
tp2600
(dp2601
s(I13
I24
tp2602
(dp2603
ssg136
(dp2604
(I17
I22
tp2605
(dp2606
s(I2
I5
tp2607
(dp2608
s(I0
I5
tp2609
(dp2610
s(I17
I20
tp2611
g2134
ssg138
(dp2612
(I26
I0
tp2613
(dp2614
s(I24
I0
tp2615
(dp2616
s(I9
I17
tp2617
(dp2618
s(I9
I15
tp2619
(dp2620
ssg140
(dp2621
(I31
I12
tp2622
(dp2623
s(I31
I14
tp2624
(dp2625
s(I16
I29
tp2626
(dp2627
s(I14
I29
tp2628
(dp2629
ssg142
(dp2630
(I12
I29
tp2631
(dp2632
s(I29
I14
tp2633
(dp2634
s(I29
I12
tp2635
(dp2636
s(I14
I29
tp2637
(dp2638
ssg144
(dp2639
(I1
I2
tp2640
(dp2641
s(I3
I2
tp2642
g2349
s(I18
I19
tp2643
g2176
s(I18
I17
tp2644
(dp2645
ssg146
(dp2646
(I27
I7
tp2647
(dp2648
s(I10
I24
tp2649
(dp2650
s(I10
I22
tp2651
(dp2652
s(I25
I7
tp2653
(dp2654
ssg148
(dp2655
(I16
I13
tp2656
(dp2657
s(I1
I30
tp2658
(dp2659
s(I16
I15
tp2660
(dp2661
ssg150
(dp2662
(I19
I12
tp2663
(dp2664
s(I19
I10
tp2665
(dp2666
s(I2
I27
tp2667
g2320
s(I4
I27
tp2668
(dp2669
ssg152
(dp2670
(I11
I7
tp2671
(dp2672
s(I26
I22
tp2673
(dp2674
s(I28
I22
tp2675
(dp2676
s(I11
I5
tp2677
(dp2678
ssg154
(dp2679
(I2
I31
tp2680
(dp2681
s(I17
I16
tp2682
(dp2683
s(I17
I14
tp2684
(dp2685
s(I0
I31
tp2686
(dp2687
ssg156
(dp2688
(I20
I13
tp2689
(dp2690
s(I5
I28
tp2691
(dp2692
s(I3
I28
tp2693
(dp2694
s(I20
I11
tp2695
(dp2696
ssg158
(dp2697
(I12
I2
tp2698
(dp2699
s(I27
I17
tp2700
(dp2701
s(I29
I17
tp2702
g2334
s(I12
I0
tp2703
(dp2704
ssg160
(dp2705
(I18
I11
tp2706
(dp2707
s(I18
I13
tp2708
(dp2709
s(I3
I28
tp2710
(dp2711
s(I1
I28
tp2712
g2284
ssg162
(dp2713
(I21
I2
tp2714
(dp2715
s(I6
I17
tp2716
(dp2717
s(I4
I17
tp2718
(dp2719
s(I21
I0
tp2720
(dp2721
ssg164
(dp2722
(I30
I20
tp2723
(dp2724
s(I28
I20
tp2725
(dp2726
s(I13
I5
tp2727
(dp2728
s(I13
I3
tp2729
(dp2730
ssg166
(dp2731
(I19
I16
tp2732
(dp2733
s(I19
I18
tp2734
(dp2735
s(I4
I1
tp2736
(dp2737
s(I2
I1
tp2738
(dp2739
ssg168
(dp2740
(I0
I6
tp2741
(dp2742
s(I0
I8
tp2743
(dp2744
s(I15
I23
tp2745
(dp2746
s(I17
I23
tp2747
(dp2748
ssg170
(dp2749
(I5
I30
tp2750
(dp2751
s(I7
I30
tp2752
(dp2753
s(I22
I15
tp2754
(dp2755
s(I22
I13
tp2756
(dp2757
ssg172
(dp2758
(I14
I28
tp2759
(dp2760
s(I31
I11
tp2761
(dp2762
s(I14
I26
tp2763
(dp2764
s(I29
I11
tp2765
g2404
ssg174
(dp2766
(I20
I2
tp2767
(dp2768
s(I3
I17
tp2769
g2735
s(I3
I19
tp2770
(dp2771
s(I18
I2
tp2772
(dp2773
ssg176
(dp2774
(I1
I5
tp2775
(dp2776
s(I18
I22
tp2777
(dp2778
s(I16
I22
tp2779
(dp2780
s(I1
I7
tp2781
(dp2782
ssg178
(dp2783
(I23
I16
tp2784
(dp2785
s(I23
I14
tp2786
(dp2787
s(I6
I31
tp2788
(dp2789
s(I8
I31
tp2790
(dp2791
ssg180
(dp2792
(I15
I19
tp2793
(dp2794
s(I30
I2
tp2795
(dp2796
s(I15
I17
tp2797
(dp2798
ssg182
(dp2799
(I21
I5
tp2800
(dp2801
s(I4
I20
tp2802
(dp2803
s(I4
I22
tp2804
(dp2805
s(I19
I5
tp2806
(dp2807
ssg184
(dp2808
(I17
I21
tp2809
(dp2810
s(I2
I6
tp2811
(dp2812
s(I2
I4
tp2813
(dp2814
s(I19
I21
tp2815
(dp2816
ssg186
(dp2817
(I0
I30
tp2818
(dp2819
s(I15
I13
tp2820
g2627
s(I17
I13
tp2821
g2447
s(I0
I28
tp2822
(dp2823
ssg188
(dp2824
(I5
I9
tp2825
(dp2826
s(I5
I7
tp2827
(dp2828
s(I22
I24
tp2829
(dp2830
s(I20
I24
tp2831
(dp2832
ssg190
(dp2833
(I18
I8
tp2834
(dp2835
s(I16
I8
tp2836
(dp2837
s(I1
I25
tp2838
(dp2839
s(I1
I23
tp2840
(dp2841
ssg192
(dp2842
(I21
I23
tp2843
(dp2844
s(I23
I23
tp2845
(dp2846
s(I6
I8
tp2847
(dp2848
s(I6
I6
tp2849
(dp2850
ssg194
(dp2851
(I19
I15
tp2852
(dp2853
s(I2
I30
tp2854
(dp2855
s(I17
I15
tp2856
(dp2857
ssg196
(dp2858
(I24
I22
tp2859
(dp2860
s(I7
I5
tp2861
(dp2862
s(I7
I7
tp2863
(dp2864
s(I22
I22
tp2865
(dp2866
ssg198
(dp2867
(I26
I8
tp2868
(dp2869
s(I11
I25
tp2870
(dp2871
s(I9
I25
tp2872
(dp2873
s(I26
I10
tp2874
(dp2875
ssg200
(dp2876
(I24
I26
tp2877
(dp2878
s(I24
I24
tp2879
(dp2880
s(I9
I9
tp2881
g2525
s(I7
I9
tp2882
(dp2883
ssg202
(dp2884
(I27
I3
tp2885
(dp2886
s(I12
I20
tp2887
(dp2888
s(I10
I20
tp2889
(dp2890
s(I27
I5
tp2891
(dp2892
ssg204
(dp2893
(I25
I21
tp2894
(dp2895
s(I25
I19
tp2896
(dp2897
s(I10
I4
tp2898
(dp2899
s(I8
I4
tp2900
(dp2901
ssg206
(dp2902
(I23
I12
tp2903
(dp2904
s(I8
I27
tp2905
(dp2906
s(I8
I29
tp2907
(dp2908
s(I25
I12
tp2909
(dp2910
ssg208
(dp2911
(I15
I3
tp2912
(dp2913
s(I30
I20
tp2914
(dp2915
s(I30
I18
tp2916
(dp2917
s(I13
I3
tp2918
(dp2919
ssg210
(dp2920
(I11
I23
tp2921
(dp2922
s(I13
I23
tp2923
(dp2924
s(I28
I6
tp2925
(dp2926
s(I28
I8
tp2927
(dp2928
ssg212
(dp2929
(I26
I18
tp2930
(dp2931
s(I9
I3
tp2932
(dp2933
s(I11
I3
tp2934
(dp2935
s(I26
I20
tp2936
(dp2937
ssg214
(dp2938
(I9
I26
tp2939
(dp2940
s(I24
I9
tp2941
(dp2942
s(I9
I24
tp2943
(dp2944
s(I26
I9
tp2945
(dp2946
ssg216
(dp2947
(I31
I11
tp2948
(dp2949
s(I14
I26
tp2950
(dp2951
s(I16
I26
tp2952
(dp2953
s(I31
I9
tp2954
(dp2955
ssg218
(dp2956
(I29
I7
tp2957
(dp2958
s(I29
I5
tp2959
(dp2960
s(I12
I22
tp2961
(dp2962
s(I14
I22
tp2963
(dp2964
ssg220
(dp2965
(I12
I10
tp2966
(dp2967
s(I27
I25
tp2968
(dp2969
s(I27
I27
tp2970
(dp2971
s(I10
I10
tp2972
(dp2973
ssg222
(dp2974
(I10
I31
tp2975
(dp2976
s(I10
I29
tp2977
(dp2978
s(I25
I14
tp2979
(dp2980
s(I27
I14
tp2981
(dp2982
ssg224
(dp2983
(I1
I21
tp2984
g2610
s(I16
I4
tp2985
(dp2986
s(I16
I6
tp2987
(dp2988
ssg226
(dp2989
(I8
I1
tp2990
(dp2991
s(I25
I18
tp2992
(dp2993
s(I8
I3
tp2994
(dp2995
s(I23
I18
tp2996
(dp2997
ssg228
(dp2998
(I28
I30
tp2999
(dp3000
s(I28
I28
tp3001
(dp3002
s(I13
I13
tp3003
g2632
s(I11
I13
tp3004
(dp3005
ssg230
(dp3006
(I26
I15
tp3007
(dp3008
s(I28
I15
tp3009
(dp3010
s(I11
I30
tp3011
(dp3012
ssg232
(dp3013
(I2
I16
tp3014
(dp3015
s(I0
I16
tp3016
(dp3017
s(I17
I1
tp3018
(dp3019
ssg234
(dp3020
(I9
I2
tp3021
(dp3022
s(I24
I19
tp3023
(dp3024
s(I26
I19
tp3025
(dp3026
s(I9
I4
tp3027
(dp3028
ssg236
(dp3029
(I20
I10
tp3030
(dp3031
s(I20
I12
tp3032
(dp3033
s(I3
I27
tp3034
(dp3035
s(I5
I27
tp3036
(dp3037
ssg238
(dp3038
(I27
I8
tp3039
(dp3040
s(I12
I23
tp3041
(dp3042
s(I12
I25
tp3043
(dp3044
s(I29
I8
tp3045
(dp3046
ssg240
(dp3047
(I18
I8
tp3048
(dp3049
s(I3
I23
tp3050
(dp3051
s(I18
I6
tp3052
(dp3053
s(I1
I23
tp3054
(dp3055
ssg242
(dp3056
(I4
I26
tp3057
(dp3058
s(I6
I26
tp3059
(dp3060
s(I21
I9
tp3061
(dp3062
s(I21
I11
tp3063
(dp3064
ssg244
(dp3065
(I13
I30
tp3066
(dp3067
s(I28
I13
tp3068
(dp3069
s(I13
I28
tp3070
(dp3071
s(I30
I13
tp3072
(dp3073
ssg246
(dp3074
(I19
I23
tp3075
(dp3076
s(I2
I6
tp3077
(dp3078
s(I4
I6
tp3079
(dp3080
s(I19
I21
tp3081
(dp3082
ssg248
(dp3083
(I5
I17
tp3084
(dp3085
s(I22
I2
tp3086
(dp3087
s(I22
I0
tp3088
(dp3089
s(I7
I17
tp3090
(dp3091
ssg250
(dp3092
(I14
I3
tp3093
(dp3094
s(I14
I1
tp3095
g2264
s(I29
I18
tp3096
(dp3097
s(I31
I18
tp3098
g2796
ssg252
(dp3099
(I5
I1
tp3100
g2719
s(I20
I16
tp3101
(dp3102
s(I3
I1
tp3103
(dp3104
s(I20
I18
tp3105
(dp3106
ssg254
(dp3107
(I18
I11
tp3108
(dp3109
s(I3
I26
tp3110
(dp3111
s(I3
I28
tp3112
(dp3113
s(I20
I11
tp3114
(dp3115
ssg256
(dp3116
(I23
I3
tp3117
(dp3118
s(I6
I20
tp3119
(dp3120
s(I23
I5
tp3121
(dp3122
s(I8
I20
tp3123
(dp3124
ssg258
(dp3125
(I15
I28
tp3126
(dp3127
s(I30
I11
tp3128
(dp3129
s(I15
I26
tp3130
(dp3131
ssg260
(dp3132
(I6
I4
tp3133
(dp3134
s(I4
I4
tp3135
(dp3136
s(I21
I21
tp3137
(dp3138
s(I21
I19
tp3139
(dp3140
ssg262
(dp3141
(I4
I29
tp3142
(dp3143
s(I21
I12
tp3144
(dp3145
s(I19
I12
tp3146
(dp3147
s(I4
I27
tp3148
(dp3149
ssg264
(dp3150
(I15
I4
tp3151
g2304
s(I0
I19
tp3152
(dp3153
s(I0
I21
tp3154
(dp3155
s(I17
I4
tp3156
(dp3157
ssg266
(dp3158
(I7
I11
tp3159
(dp3160
s(I22
I26
tp3161
(dp3162
s(I22
I28
tp3163
(dp3164
s(I5
I11
tp3165
(dp3166
ssg268
(dp3167
(I20
I1
tp3168
(dp3169
s(I22
I1
tp3170
(dp3171
s(I5
I18
tp3172
(dp3173
s(I5
I16
tp3174
(dp3175
ssg270
(dp3176
(I3
I0
tp3177
(dp3178
s(I3
I2
tp3179
g2345
s(I20
I17
tp3180
(dp3181
s(I18
I17
tp3182
(dp3183
ssg272
(dp3184
(I1
I18
tp3185
(dp3186
s(I16
I1
tp3187
(dp3188
s(I1
I16
tp3189
(dp3190
s(I18
I1
tp3191
(dp3192
ssg274
(dp3193
(I21
I14
tp3194
(dp3195
s(I23
I14
tp3196
(dp3197
s(I6
I31
tp3198
(dp3199
s(I6
I29
tp3200
(dp3201
ssg276
(dp3202
(I2
I23
tp3203
(dp3204
s(I2
I21
tp3205
(dp3206
s(I17
I6
tp3207
g2778
s(I19
I6
tp3208
(dp3209
ssg278
(dp3210
(I7
I30
tp3211
(dp3212
s(I22
I15
tp3213
(dp3214
s(I24
I15
tp3215
(dp3216
ssg280
(dp3217
(I24
I1
tp3218
(dp3219
s(I9
I16
tp3220
(dp3221
s(I7
I16
tp3222
(dp3223
ssg282
(dp3224
(I25
I30
tp3225
(dp3226
s(I10
I13
tp3227
(dp3228
s(I8
I13
tp3229
(dp3230
s(I25
I28
tp3231
(dp3232
ssg284
(dp3233
(I30
I27
tp3234
g2764
s(I30
I25
tp3235
(dp3236
s(I13
I10
tp3237
(dp3238
s(I15
I10
tp3239
g2951
ssg286
(dp3240
(I9
I10
tp3241
(dp3242
s(I11
I10
tp3243
(dp3244
s(I26
I27
tp3245
(dp3246
s(I26
I25
tp3247
(dp3248
ssg288
(dp3249
(I14
I3
tp3250
(dp3251
s(I31
I20
tp3252
(dp3253
s(I16
I3
tp3254
(dp3255
s(I31
I18
tp3256
g2794
ssg290
(dp3257
(I27
I20
tp3258
(dp3259
s(I27
I18
tp3260
(dp3261
s(I10
I3
tp3262
(dp3263
s(I12
I3
tp3264
(dp3265
ssg292
(dp3266
(I10
I24
tp3267
(dp3268
s(I27
I9
tp3269
(dp3270
s(I25
I9
tp3271
(dp3272
s(I10
I26
tp3273
g3248
ssg294
(dp3274
(I16
I27
tp3275
(dp3276
s(I16
I29
tp3277
g2823
s(I1
I12
tp3278
(dp3279
ssg296
(dp3280
(I25
I25
tp3281
g2942
s(I8
I8
tp3282
(dp3283
s(I8
I10
tp3284
(dp3285
s(I23
I25
tp3286
(dp3287
ssg298
(dp3288
(I28
I21
tp3289
(dp3290
s(I13
I4
tp3291
(dp3292
s(I11
I4
tp3293
g2888
s(I28
I19
tp3294
(dp3295
ssg300
(dp3296
(I28
I4
tp3297
(dp3298
s(I11
I19
tp3299
g3259
s(I26
I4
tp3300
(dp3301
s(I11
I21
tp3302
(dp3303
ssg302
(dp3304
(I0
I9
tp3305
(dp3306
s(I17
I26
tp3307
(dp3308
s(I17
I24
tp3309
g2839
s(I2
I9
tp3310
(dp3311
ssg304
(dp3312
(I9
I5
tp3313
(dp3314
s(I9
I3
tp3315
(dp3316
s(I26
I20
tp3317
(dp3318
s(I24
I20
tp3319
(dp3320
ssg306
(dp3321
(I29
I26
tp3322
(dp3323
s(I14
I9
tp3324
(dp3325
s(I12
I9
tp3326
(dp3327
s(I29
I24
tp3328
(dp3329
ssg308
(dp3330
(I27
I7
tp3331
(dp3332
s(I29
I7
tp3333
(dp3334
s(I12
I22
tp3335
(dp3336
s(I12
I24
tp3337
(dp3338
ssg310
(dp3339
(I18
I31
tp3340
g2855
s(I18
I29
tp3341
(dp3342
s(I1
I14
tp3343
(dp3344
s(I3
I14
tp3345
(dp3346
ssg312
(dp3347
(I25
I19
tp3348
(dp3349
s(I10
I4
tp3350
(dp3351
s(I27
I19
tp3352
(dp3353
s(I10
I2
tp3354
(dp3355
ssg314
(dp3356
(I30
I6
tp3357
(dp3358
s(I13
I23
tp3359
(dp3360
s(I13
I21
tp3361
(dp3362
s(I28
I6
tp3363
(dp3364
ssg316
(dp3365
(I2
I15
tp3366
(dp3367
s(I4
I15
tp3368
(dp3369
s(I19
I30
tp3370
(dp3371
ssg318
(dp3372
(I28
I26
tp3373
(dp3374
s(I11
I9
tp3375
(dp3376
s(I11
I11
tp3377
(dp3378
s(I26
I26
tp3379
(dp3380
ssg320
(dp3381
(I14
I4
tp3382
(dp3383
s(I31
I21
tp3384
g2469
s(I29
I21
tp3385
(dp3386
s(I14
I6
tp3387
(dp3388
ssg322
(dp3389
(I3
I8
tp3390
(dp3391
s(I20
I23
tp3392
(dp3393
s(I20
I25
tp3394
g2095
s(I5
I8
tp3395
(dp3396
ssg324
(dp3397
(I12
I12
tp3398
(dp3399
s(I12
I14
tp3400
(dp3401
s(I29
I29
tp3402
g3069
s(I27
I29
tp3403
(dp3404
ssg326
(dp3405
(I30
I16
tp3406
g2429
s(I15
I1
tp3407
(dp3408
ssg328
(dp3409
(I4
I13
tp3410
(dp3411
s(I21
I30
tp3412
(dp3413
s(I21
I28
tp3414
g2120
s(I6
I13
tp3415
(dp3416
ssg330
(dp3417
(I4
I26
tp3418
(dp3419
s(I4
I28
tp3420
(dp3421
s(I19
I11
tp3422
(dp3423
s(I21
I11
tp3424
(dp3425
ssg332
(dp3426
(I15
I27
tp3427
(dp3428
s(I17
I27
tp3429
(dp3430
s(I0
I10
tp3431
(dp3432
s(I0
I12
tp3433
(dp3434
ssg334
(dp3435
(I22
I19
tp3436
g2156
s(I22
I17
tp3437
(dp3438
s(I5
I2
tp3439
(dp3440
s(I7
I2
tp3441
(dp3442
ssg336
(dp3443
(I5
I25
tp3444
(dp3445
s(I20
I10
tp3446
(dp3447
s(I22
I10
tp3448
(dp3449
s(I5
I27
tp3450
(dp3451
ssg338
(dp3452
(I3
I7
tp3453
(dp3454
s(I18
I22
tp3455
g3209
s(I20
I22
tp3456
(dp3457
s(I3
I5
tp3458
(dp3459
ssg340
(dp3460
(I1
I11
tp3461
(dp3462
s(I18
I26
tp3463
(dp3464
s(I1
I9
tp3465
(dp3466
s(I16
I26
tp3467
(dp3468
ssg342
(dp3469
(I6
I11
tp3470
(dp3471
s(I23
I28
tp3472
(dp3473
s(I8
I11
tp3474
(dp3475
s(I23
I26
tp3476
g2179
ssg344
(dp3477
(I21
I1
tp3478
(dp3479
s(I6
I18
tp3480
g3438
s(I6
I16
tp3481
(dp3482
s(I23
I1
tp3483
(dp3484
ssg346
(dp3485
(I4
I2
tp3486
(dp3487
s(I21
I17
tp3488
g3169
s(I19
I17
tp3489
(dp3490
s(I4
I0
tp3491
(dp3492
ssg348
(dp3493
(I2
I16
tp3494
(dp3495
s(I19
I1
tp3496
g3183
s(I17
I1
tp3497
(dp3498
s(I2
I18
tp3499
g2645
ssg350
(dp3500
(I24
I4
tp3501
(dp3502
s(I7
I19
tp3503
(dp3504
s(I7
I21
tp3505
(dp3506
s(I22
I4
tp3507
(dp3508
ssg352
(dp3509
(I22
I20
tp3510
(dp3511
s(I20
I20
tp3512
(dp3513
s(I5
I5
tp3514
(dp3515
s(I5
I3
tp3516
(dp3517
ssg354
(dp3518
(I24
I6
tp3519
(dp3520
s(I24
I8
tp3521
(dp3522
s(I7
I23
tp3523
(dp3524
s(I9
I23
tp3525
(dp3526
ssg356
(dp3527
(I6
I12
tp3528
(dp3529
s(I6
I10
tp3530
(dp3531
s(I23
I27
tp3532
(dp3533
s(I21
I27
tp3534
(dp3535
ssg358
(dp3536
(I25
I5
tp3537
(dp3538
s(I8
I22
tp3539
(dp3540
s(I10
I22
tp3541
(dp3542
s(I25
I7
tp3543
(dp3544
ssg360
(dp3545
(I30
I28
tp3546
(dp3547
s(I15
I13
tp3548
g2629
s(I13
I13
tp3549
g2638
s(I30
I30
tp3550
(dp3551
ssg362
(dp3552
(I9
I21
tp3553
(dp3554
s(I26
I6
tp3555
(dp3556
s(I26
I4
tp3557
(dp3558
s(I11
I21
tp3559
(dp3560
ssg364
(dp3561
(I31
I23
tp3562
(dp3563
s(I16
I8
tp3564
(dp3565
s(I14
I8
tp3566
g2592
s(I31
I25
tp3567
(dp3568
ssg366
(dp3569
(I27
I7
tp3570
(dp3571
s(I10
I24
tp3572
(dp3573
s(I27
I9
tp3574
(dp3575
s(I12
I24
tp3576
(dp3577
ssg368
(dp3578
(I1
I3
tp3579
(dp3580
s(I16
I18
tp3581
(dp3582
s(I16
I20
tp3583
g3153
ssg370
(dp3584
(I8
I17
tp3585
(dp3586
s(I25
I0
tp3587
(dp3588
s(I23
I0
tp3589
(dp3590
s(I8
I15
tp3591
(dp3592
ssg372
(dp3593
(I30
I6
tp3594
(dp3595
s(I13
I23
tp3596
(dp3597
s(I15
I23
tp3598
(dp3599
s(I30
I8
tp3600
(dp3601
ssg374
(dp3602
(I28
I18
tp3603
(dp3604
s(I28
I20
tp3605
(dp3606
s(I11
I3
tp3607
(dp3608
s(I13
I3
tp3609
(dp3610
ssg376
(dp3611
(I17
I19
tp3612
(dp3613
s(I0
I2
tp3614
(dp3615
s(I17
I17
tp3616
g3186
s(I2
I2
tp3617
(dp3618
ssg378
(dp3619
(I24
I29
tp3620
(dp3621
s(I26
I29
tp3622
(dp3623
s(I9
I14
tp3624
(dp3625
s(I9
I12
tp3626
(dp3627
ssg380
(dp3628
(I16
I22
tp3629
(dp3630
s(I31
I5
tp3631
(dp3632
s(I31
I7
tp3633
(dp3634
s(I14
I22
tp3635
(dp3636
ssg382
(dp3637
(I12
I2
tp3638
(dp3639
s(I14
I2
tp3640
(dp3641
s(I29
I17
tp3642
g2338
s(I29
I19
tp3643
(dp3644
ssg384
(dp3645
(I18
I24
tp3646
(dp3647
s(I3
I9
tp3648
(dp3649
s(I1
I9
tp3650
(dp3651
s(I18
I26
tp3652
(dp3653
ssg386
(dp3654
(I25
I26
tp3655
(dp3656
s(I27
I26
tp3657
(dp3658
s(I10
I11
tp3659
(dp3660
s(I10
I9
tp3661
g2875
ssg388
(dp3662
(I16
I8
tp3663
(dp3664
s(I1
I25
tp3665
g3306
s(I16
I10
tp3666
(dp3667
ssg390
(dp3668
(I4
I20
tp3669
(dp3670
s(I19
I3
tp3671
(dp3672
s(I2
I20
tp3673
(dp3674
s(I19
I5
tp3675
(dp3676
ssg392
(dp3677
(I26
I19
tp3678
(dp3679
s(I11
I2
tp3680
(dp3681
s(I11
I4
tp3682
g2886
s(I28
I19
tp3683
(dp3684
ssg394
(dp3685
(I14
I11
tp3686
(dp3687
s(I31
I28
tp3688
(dp3689
s(I29
I28
tp3690
(dp3691
s(I14
I13
tp3692
(dp3693
ssg396
(dp3694
(I3
I23
tp3695
(dp3696
s(I5
I23
tp3697
(dp3698
s(I20
I6
tp3699
(dp3700
s(I20
I8
tp3701
(dp3702
ssg398
(dp3703
(I12
I5
tp3704
(dp3705
s(I29
I20
tp3706
(dp3707
s(I27
I20
tp3708
g3298
s(I12
I3
tp3709
(dp3710
ssg400
(dp3711
(I30
I25
tp3712
(dp3713
s(I15
I8
tp3714
(dp3715
s(I15
I10
tp3716
g2955
ssg402
(dp3717
(I21
I5
tp3718
(dp3719
s(I21
I7
tp3720
(dp3721
s(I4
I22
tp3722
(dp3723
s(I6
I22
tp3724
(dp3725
ssg404
(dp3726
(I28
I25
tp3727
(dp3728
s(I30
I25
tp3729
(dp3730
s(I13
I10
tp3731
(dp3732
s(I13
I8
tp3733
(dp3734
ssg406
(dp3735
(I0
I1
tp3736
(dp3737
s(I17
I18
tp3738
(dp3739
s(I0
I3
tp3740
(dp3741
s(I15
I18
tp3742
(dp3743
ssg408
(dp3744
(I22
I20
tp3745
(dp3746
s(I7
I5
tp3747
(dp3748
s(I5
I5
tp3749
(dp3750
s(I22
I22
tp3751
(dp3752
ssg410
(dp3753
(I29
I6
tp3754
(dp3755
s(I31
I6
tp3756
g2079
s(I14
I23
tp3757
(dp3758
s(I14
I21
tp3759
(dp3760
ssg412
(dp3761
(I3
I16
tp3762
(dp3763
s(I18
I31
tp3764
g2853
s(I20
I31
tp3765
(dp3766
s(I3
I14
tp3767
(dp3768
ssg414
(dp3769
(I1
I2
tp3770
(dp3771
s(I16
I19
tp3772
(dp3773
s(I18
I19
tp3774
g2170
s(I1
I4
tp3775
(dp3776
ssg416
(dp3777
(I23
I15
tp3778
(dp3779
s(I8
I0
tp3780
g3223
s(I6
I0
tp3781
(dp3782
s(I23
I17
tp3783
(dp3784
ssg418
(dp3785
(I30
I7
tp3786
(dp3787
s(I15
I22
tp3788
(dp3789
s(I15
I24
tp3790
g3563
ssg420
(dp3791
(I19
I24
tp3792
(dp3793
s(I4
I7
tp3794
g3702
s(I4
I9
tp3795
(dp3796
s(I21
I24
tp3797
(dp3798
ssg422
(dp3799
(I2
I7
tp3800
g3049
s(I19
I24
tp3801
(dp3802
s(I17
I24
tp3803
g2835
s(I2
I9
tp3804
(dp3805
ssg424
(dp3806
(I0
I25
tp3807
(dp3808
s(I17
I8
tp3809
(dp3810
s(I15
I8
tp3811
(dp3812
s(I0
I23
tp3813
(dp3814
ssg426
(dp3815
(I5
I14
tp3816
(dp3817
s(I20
I29
tp3818
(dp3819
s(I5
I12
tp3820
(dp3821
s(I22
I29
tp3822
(dp3823
ssg428
(dp3824
(I24
I13
tp3825
(dp3826
s(I7
I30
tp3827
(dp3828
s(I9
I30
tp3829
(dp3830
s(I24
I15
tp3831
(dp3832
ssg430
(dp3833
(I6
I3
tp3834
(dp3835
s(I6
I1
tp3836
g3087
s(I21
I18
tp3837
(dp3838
s(I23
I18
tp3839
(dp3840
ssg432
(dp3841
(I10
I31
tp3842
(dp3843
s(I25
I16
tp3844
g2620
s(I25
I14
tp3845
(dp3846
s(I8
I31
tp3847
(dp3848
ssg434
(dp3849
(I7
I12
tp3850
(dp3851
s(I22
I27
tp3852
(dp3853
s(I24
I27
tp3854
(dp3855
s(I7
I10
tp3856
(dp3857
ssg436
(dp3858
(I26
I11
tp3859
(dp3860
s(I26
I13
tp3861
(dp3862
s(I11
I28
tp3863
(dp3864
s(I9
I28
tp3865
(dp3866
ssg438
(dp3867
(I7
I4
tp3868
g3124
s(I24
I19
tp3869
(dp3870
s(I24
I21
tp3871
g2585
s(I9
I4
tp3872
(dp3873
ssg440
(dp3874
(I27
I0
tp3875
(dp3876
s(I27
I2
tp3877
(dp3878
s(I12
I17
tp3879
g2273
s(I10
I17
tp3880
(dp3881
ssg442
(dp3882
(I8
I1
tp3883
(dp3884
s(I25
I18
tp3885
(dp3886
s(I25
I16
tp3887
g2618
s(I10
I1
tp3888
(dp3889
ssg444
(dp3890
(I8
I22
tp3891
(dp3892
s(I8
I24
tp3893
(dp3894
s(I23
I7
tp3895
(dp3896
s(I25
I7
tp3897
(dp3898
ssg446
(dp3899
(I13
I30
tp3900
(dp3901
s(I15
I30
tp3902
g2234
s(I30
I15
tp3903
(dp3904
s(I30
I13
tp3905
(dp3906
ssg448
(dp3907
(I28
I9
tp3908
(dp3909
s(I11
I26
tp3910
g2967
s(I13
I26
tp3911
(dp3912
s(I28
I11
tp3913
(dp3914
ssg450
(dp3915
(I26
I23
tp3916
g2652
s(I26
I21
tp3917
(dp3918
s(I9
I6
tp3919
g3542
s(I11
I6
tp3920
(dp3921
ssg452
(dp3922
(I9
I21
tp3923
(dp3924
s(I26
I6
tp3925
(dp3926
s(I24
I6
tp3927
(dp3928
s(I9
I23
tp3929
(dp3930
ssg454
(dp3931
(I31
I16
tp3932
(dp3933
s(I31
I14
tp3934
(dp3935
s(I14
I31
tp3936
g2214
s(I16
I31
tp3937
(dp3938
ssg456
(dp3939
(I14
I27
tp3940
(dp3941
s(I29
I12
tp3942
(dp3943
s(I29
I10
tp3944
(dp3945
s(I12
I27
tp3946
(dp3947
ssg458
(dp3948
(I3
I0
tp3949
(dp3950
s(I18
I15
tp3951
(dp3952
s(I1
I0
tp3953
g3015
s(I18
I17
tp3954
g3495
ssg460
(dp3955
(I25
I5
tp3956
(dp3957
s(I10
I22
tp3958
g3918
s(I10
I20
tp3959
(dp3960
s(I27
I5
tp3961
(dp3962
ssg462
(dp3963
(I16
I1
tp3964
(dp3965
s(I1
I16
tp3966
(dp3967
ssg464
(dp3968
(I4
I29
tp3969
(dp3970
s(I2
I29
tp3971
(dp3972
s(I19
I12
tp3973
(dp3974
s(I19
I14
tp3975
(dp3976
ssg466
(dp3977
(I28
I8
tp3978
(dp3979
s(I11
I23
tp3980
(dp3981
s(I11
I25
tp3982
(dp3983
s(I26
I8
tp3984
(dp3985
ssg468
(dp3986
(I17
I14
tp3987
(dp3988
s(I2
I29
tp3989
(dp3990
s(I0
I29
tp3991
(dp3992
s(I17
I12
tp3993
(dp3994
ssg470
(dp3995
(I5
I30
tp3996
(dp3997
s(I20
I13
tp3998
(dp3999
s(I20
I15
tp4000
(dp4001
s(I3
I30
tp4002
(dp4003
ssg472
(dp4004
(I12
I2
tp4005
(dp4006
s(I12
I4
tp4007
(dp4008
s(I27
I19
tp4009
(dp4010
s(I29
I19
tp4011
(dp4012
ssg474
(dp4013
(I1
I26
tp4014
(dp4015
s(I3
I26
tp4016
(dp4017
s(I18
I11
tp4018
(dp4019
s(I18
I9
tp4020
(dp4021
ssg476
(dp4022
(I21
I14
tp4023
(dp4024
s(I4
I31
tp4025
(dp4026
s(I6
I31
tp4027
(dp4028
s(I21
I16
tp4029
(dp4030
ssg478
(dp4031
(I13
I1
tp4032
(dp4033
s(I30
I18
tp4034
(dp4035
s(I28
I18
tp4036
(dp4037
s(I13
I3
tp4038
(dp4039
ssg480
(dp4040
(I19
I20
tp4041
(dp4042
s(I19
I18
tp4043
g2771
s(I2
I3
tp4044
(dp4045
s(I4
I3
tp4046
(dp4047
ssg482
(dp4048
(I7
I28
tp4049
(dp4050
s(I22
I11
tp4051
g3529
s(I5
I28
tp4052
(dp4053
s(I22
I13
tp4054
(dp4055
ssg484
(dp4056
(I29
I9
tp4057
g3730
s(I14
I26
tp4058
g3236
s(I14
I24
tp4059
(dp4060
s(I31
I9
tp4061
g3713
ssg486
(dp4062
(I20
I21
tp4063
g2803
s(I5
I4
tp4064
(dp4065
s(I3
I4
tp4066
g3670
s(I20
I19
tp4067
(dp4068
ssg488
(dp4069
(I20
I4
tp4070
(dp4071
s(I18
I4
tp4072
(dp4073
s(I3
I19
tp4074
g4042
s(I3
I21
tp4075
(dp4076
ssg490
(dp4077
(I1
I5
tp4078
(dp4079
s(I1
I3
tp4080
(dp4081
s(I18
I20
tp4082
(dp4083
s(I16
I20
tp4084
g3157
ssg492
(dp4085
(I8
I25
tp4086
g2883
s(I6
I25
tp4087
(dp4088
s(I23
I8
tp4089
(dp4090
s(I23
I10
tp4091
(dp4092
ssg494
(dp4093
(I15
I27
tp4094
(dp4095
s(I15
I29
tp4096
(dp4097
s(I30
I12
tp4098
g3689
ssg496
(dp4099
(I19
I7
tp4100
(dp4101
s(I21
I7
tp4102
(dp4103
s(I4
I22
tp4104
(dp4105
s(I4
I24
tp4106
g3393
ssg498
(dp4107
(I17
I19
tp4108
(dp4109
s(I19
I19
tp4110
(dp4111
s(I2
I4
tp4112
(dp4113
s(I2
I2
tp4114
(dp4115
ssg500
(dp4116
(I0
I30
tp4117
(dp4118
s(I15
I15
tp4119
g3938
s(I17
I15
tp4120
(dp4121
ssg502
(dp4122
(I22
I6
tp4123
(dp4124
s(I5
I23
tp4125
(dp4126
s(I5
I21
tp4127
(dp4128
s(I20
I6
tp4129
(dp4130
ssg504
(dp4131
(I1
I29
tp4132
(dp4133
s(I18
I14
tp4134
(dp4135
s(I16
I14
tp4136
(dp4137
s(I1
I31
tp4138
(dp4139
ssg506
(dp4140
(I6
I4
tp4141
(dp4142
s(I23
I21
tp4143
(dp4144
s(I21
I21
tp4145
(dp4146
s(I6
I6
tp4147
(dp4148
ssg508
(dp4149
(I17
I13
tp4150
g2449
s(I2
I30
tp4151
g3342
s(I2
I28
tp4152
(dp4153
s(I19
I13
tp4154
g2440
ssg510
(dp4155
(I24
I16
tp4156
g3590
s(I22
I16
tp4157
(dp4158
s(I7
I1
tp4159
(dp4160
ssg512
(dp4161
(I7
I11
tp4162
(dp4163
s(I9
I11
tp4164
(dp4165
s(I24
I26
tp4166
(dp4167
s(I24
I28
tp4168
g2906
ssg514
(dp4169
(I27
I7
tp4170
(dp4171
s(I10
I22
tp4172
g3921
s(I12
I22
tp4173
(dp4174
s(I27
I5
tp4175
(dp4176
ssg516
(dp4177
(I25
I25
tp4178
g2940
s(I25
I27
tp4179
(dp4180
s(I8
I10
tp4181
(dp4182
s(I10
I10
tp4183
(dp4184
ssg518
(dp4185
(I25
I14
tp4186
(dp4187
s(I23
I14
tp4188
(dp4189
s(I8
I29
tp4190
(dp4191
s(I8
I31
tp4192
(dp4193
ssg520
(dp4194
(I13
I1
tp4195
(dp4196
s(I30
I18
tp4197
(dp4198
s(I30
I16
tp4199
g2431
s(I15
I1
tp4200
(dp4201
ssg522
(dp4202
(I13
I17
tp4203
(dp4204
s(I28
I0
tp4205
(dp4206
s(I11
I17
tp4207
(dp4208
s(I28
I2
tp4209
(dp4210
ssg524
(dp4211
(I26
I16
tp4212
(dp4213
s(I11
I1
tp4214
g3881
s(I9
I1
tp4215
(dp4216
s(I26
I18
tp4217
(dp4218
ssg526
(dp4219
(I26
I15
tp4220
(dp4221
s(I9
I30
tp4222
(dp4223
s(I24
I15
tp4224
(dp4225
ssg528
(dp4226
(I14
I4
tp4227
(dp4228
s(I31
I21
tp4229
g2465
s(I31
I19
tp4230
(dp4231
s(I16
I4
tp4232
(dp4233
ssg530
(dp4234
(I14
I20
tp4235
(dp4236
s(I12
I20
tp4237
g3292
s(I29
I5
tp4238
(dp4239
s(I29
I3
tp4240
(dp4241
ssg532
(dp4242
(I27
I27
tp4243
(dp4244
s(I12
I12
tp4245
(dp4246
s(I10
I12
tp4247
g3864
s(I27
I29
tp4248
(dp4249
ssg534
(dp4250
(I27
I12
tp4251
(dp4252
s(I10
I29
tp4253
(dp4254
s(I10
I27
tp4255
(dp4256
s(I25
I12
tp4257
(dp4258
ssg536
(dp4259
(I16
I6
tp4260
(dp4261
s(I16
I8
tp4262
(dp4263
s(I1
I23
tp4264
(dp4265
ssg538
(dp4266
(I23
I20
tp4267
g3502
s(I8
I3
tp4268
(dp4269
s(I8
I5
tp4270
g2196
s(I25
I20
tp4271
(dp4272
ssg540
(dp4273
(I11
I15
tp4274
g2565
s(I13
I15
tp4275
(dp4276
s(I28
I30
tp4277
(dp4278
ssg542
(dp4279
(I11
I16
tp4280
(dp4281
s(I11
I18
tp4282
(dp4283
s(I28
I1
tp4284
g2701
s(I26
I1
tp4285
(dp4286
ssg544
(dp4287
(I0
I22
tp4288
(dp4289
s(I2
I22
tp4290
(dp4291
s(I17
I5
tp4292
(dp4293
s(I17
I7
tp4294
(dp4295
ssg546
(dp4296
(I9
I2
tp4297
(dp4298
s(I24
I17
tp4299
(dp4300
s(I9
I0
tp4301
g2209
s(I26
I17
tp4302
(dp4303
ssg548
(dp4304
(I29
I31
tp4305
(dp4306
s(I12
I14
tp4307
(dp4308
s(I29
I29
tp4309
g3067
s(I14
I14
tp4310
g3901
ssg550
(dp4311
(I29
I10
tp4312
(dp4313
s(I27
I10
tp4314
g3374
s(I12
I25
tp4315
(dp4316
s(I12
I27
tp4317
(dp4318
ssg552
(dp4319
(I1
I21
tp4320
g2608
s(I18
I6
tp4321
(dp4322
s(I18
I4
tp4323
(dp4324
s(I3
I21
tp4325
(dp4326
ssg554
(dp4327
(I10
I7
tp4328
g2221
s(I10
I5
tp4329
g3556
s(I25
I22
tp4330
g3926
s(I27
I22
tp4331
(dp4332
ssg556
(dp4333
(I21
I9
tp4334
(dp4335
s(I21
I7
tp4336
(dp4337
s(I6
I24
tp4338
(dp4339
s(I4
I24
tp4340
g3396
ssg558
(dp4341
(I30
I11
tp4342
(dp4343
s(I13
I28
tp4344
(dp4345
s(I13
I26
tp4346
(dp4347
s(I28
I11
tp4348
(dp4349
ssg560
(dp4350
(I2
I8
tp4351
(dp4352
s(I19
I25
tp4353
(dp4354
s(I19
I23
tp4355
(dp4356
s(I4
I8
tp4357
(dp4358
ssg562
(dp4359
(I22
I6
tp4360
(dp4361
s(I5
I23
tp4362
(dp4363
s(I7
I23
tp4364
(dp4365
s(I22
I8
tp4366
(dp4367
ssg564
(dp4368
(I14
I1
tp4369
g2266
s(I31
I16
tp4370
(dp4371
s(I29
I16
tp4372
(dp4373
ssg566
(dp4374
(I20
I18
tp4375
(dp4376
s(I20
I20
tp4377
(dp4378
s(I3
I3
tp4379
(dp4380
s(I5
I3
tp4381
(dp4382
ssg568
(dp4383
(I20
I13
tp4384
(dp4385
s(I18
I13
tp4386
(dp4387
s(I3
I28
tp4388
(dp4389
s(I3
I30
tp4390
(dp4391
ssg570
(dp4392
(I8
I22
tp4393
(dp4394
s(I23
I5
tp4395
(dp4396
s(I23
I7
tp4397
(dp4398
s(I6
I22
tp4399
(dp4400
ssg572
(dp4401
(I15
I4
tp4402
g2302
s(I15
I6
tp4403
g3632
s(I30
I21
tp4404
(dp4405
ssg574
(dp4406
(I4
I2
tp4407
(dp4408
s(I21
I17
tp4409
g3173
s(I6
I2
tp4410
(dp4411
s(I21
I19
tp4412
(dp4413
ssg576
(dp4414
(I4
I29
tp4415
(dp4416
s(I21
I14
tp4417
(dp4418
s(I4
I31
tp4419
(dp4420
s(I19
I14
tp4421
(dp4422
ssg578
(dp4423
(I17
I6
tp4424
g2780
s(I15
I6
tp4425
g3630
s(I0
I21
tp4426
(dp4427
s(I0
I23
tp4428
(dp4429
ssg580
(dp4430
(I5
I9
tp4431
(dp4432
s(I22
I26
tp4433
(dp4434
s(I22
I24
tp4435
(dp4436
s(I7
I9
tp4437
g4088
ssg582
(dp4438
(I5
I30
tp4439
(dp4440
s(I20
I15
tp4441
(dp4442
s(I22
I15
tp4443
(dp4444
ssg584
(dp4445
(I18
I19
tp4446
g2172
s(I3
I2
tp4447
g2347
s(I3
I4
tp4448
g3672
s(I20
I19
tp4449
(dp4450
ssg586
(dp4451
(I18
I7
tp4452
(dp4453
s(I1
I24
tp4454
(dp4455
s(I1
I22
tp4456
(dp4457
s(I16
I7
tp4458
g2748
ssg588
(dp4459
(I6
I12
tp4460
g4050
s(I23
I29
tp4461
(dp4462
s(I23
I27
tp4463
(dp4464
s(I8
I12
tp4465
g2508
ssg590
(dp4466
(I6
I27
tp4467
g3164
s(I23
I12
tp4468
(dp4469
s(I21
I12
tp4470
(dp4471
s(I6
I29
tp4472
(dp4473
ssg592
(dp4474
(I4
I5
tp4475
g2370
s(I21
I20
tp4476
(dp4477
s(I19
I20
tp4478
g4071
s(I4
I3
tp4479
(dp4480
ssg594
(dp4481
(I19
I4
tp4482
g2125
s(I2
I21
tp4483
(dp4484
s(I2
I19
tp4485
(dp4486
s(I17
I4
tp4487
g4083
ssg596
(dp4488
(I24
I9
tp4489
g3287
s(I22
I9
tp4490
(dp4491
s(I7
I24
tp4492
(dp4493
s(I7
I26
tp4494
(dp4495
ssg598
(dp4496
(I9
I18
tp4497
(dp4498
s(I24
I1
tp4499
(dp4500
s(I24
I3
tp4501
(dp4502
s(I7
I18
tp4503
(dp4504
ssg600
(dp4505
(I25
I2
tp4506
(dp4507
s(I8
I19
tp4508
(dp4509
s(I10
I19
tp4510
g2933
s(I25
I4
tp4511
g3316
ssg602
(dp4512
(I30
I23
tp4513
(dp4514
s(I30
I25
tp4515
g4060
s(I15
I8
tp4516
(dp4517
s(I13
I8
tp4518
(dp4519
ssg604
(dp4520
(I11
I8
tp4521
g3573
s(I26
I23
tp4522
g2650
s(I9
I8
tp4523
(dp4524
s(I26
I25
tp4525
g3268
ssg606
(dp4526
(I31
I28
tp4527
g4097
s(I31
I30
tp4528
(dp4529
s(I16
I13
tp4530
(dp4531
s(I14
I13
tp4532
(dp4533
ssg608
(dp4534
(I12
I5
tp4535
(dp4536
s(I10
I5
tp4537
g3560
s(I27
I20
tp4538
g3303
s(I27
I22
tp4539
(dp4540
ssg610
(dp4541
(I16
I29
tp4542
g2819
s(I1
I14
tp4543
(dp4544
s(I16
I31
tp4545
g4118
ssg612
(dp4546
(I23
I27
tp4547
(dp4548
s(I25
I27
tp4549
(dp4550
s(I8
I10
tp4551
(dp4552
s(I8
I12
tp4553
g2510
ssg614
(dp4554
(I30
I3
tp4555
(dp4556
s(I30
I1
tp4557
(dp4558
s(I13
I18
tp4559
g3641
s(I15
I18
tp4560
(dp4561
ssg616
(dp4562
(I13
I6
tp4563
g2962
s(I28
I21
tp4564
(dp4565
s(I28
I23
tp4566
g3336
s(I11
I6
tp4567
g4174
ssg618
(dp4568
(I11
I23
tp4569
(dp4570
s(I26
I6
tp4571
g4332
s(I28
I6
tp4572
(dp4573
s(I11
I21
tp4574
g4540
ssg620
(dp4575
(I2
I15
tp4576
(dp4577
s(I17
I30
tp4578
g4139
s(I0
I15
tp4579
(dp4580
ssg622
(dp4581
(I26
I26
tp4582
(dp4583
s(I9
I11
tp4584
(dp4585
s(I9
I9
tp4586
g2527
s(I24
I26
tp4587
(dp4588
ssg624
(dp4589
(I29
I22
tp4590
g3360
s(I12
I7
tp4591
g2924
s(I14
I7
tp4592
g3597
s(I29
I24
tp4593
(dp4594
ssg626
(dp4595
(I12
I18
tp4596
(dp4597
s(I27
I1
tp4598
g2356
s(I29
I1
tp4599
(dp4600
s(I12
I16
tp4601
(dp4602
ssg628
(dp4603
(I18
I27
tp4604
(dp4605
s(I18
I29
tp4606
g4153
s(I3
I12
tp4607
(dp4608
s(I1
I12
tp4609
(dp4610
ssg630
(dp4611
(I10
I0
tp4612
(dp4613
s(I27
I17
tp4614
g4286
s(I25
I17
tp4615
(dp4616
s(I10
I2
tp4617
(dp4618
ssg632
(dp4619
(I30
I4
tp4620
(dp4621
s(I28
I4
tp4622
g3707
s(I13
I21
tp4623
(dp4624
s(I13
I19
tp4625
(dp4626
ssg634
(dp4627
(I19
I0
tp4628
(dp4629
s(I19
I2
tp4630
(dp4631
s(I4
I17
tp4632
g3104
s(I2
I17
tp4633
(dp4634
ssg636
(dp4635
(I28
I28
tp4636
(dp4637
s(I26
I28
tp4638
g4252
s(I11
I11
tp4639
(dp4640
s(I11
I13
tp4641
(dp4642
ssg638
(dp4643
(I14
I12
tp4644
(dp4645
s(I31
I27
tp4646
g3129
s(I14
I10
tp4647
(dp4648
s(I29
I27
tp4649
g4343
ssg640
(dp4650
(I20
I25
tp4651
g2089
s(I3
I10
tp4652
(dp4653
s(I5
I10
tp4654
g3058
s(I20
I27
tp4655
g3419
ssg642
(dp4656
(I27
I31
tp4657
g3010
s(I29
I31
tp4658
(dp4659
s(I12
I14
tp4660
(dp4661
s(I12
I16
tp4662
(dp4663
ssg644
(dp4664
(I15
I3
tp4665
(dp4666
s(I30
I18
tp4667
(dp4668
s(I15
I1
tp4669
(dp4670
ssg646
(dp4671
(I6
I11
tp4672
(dp4673
s(I21
I28
tp4674
g2122
s(I21
I26
tp4675
g3451
s(I4
I11
tp4676
g3037
ssg648
(dp4677
(I30
I30
tp4678
(dp4679
s(I13
I15
tp4680
(dp4681
s(I13
I13
tp4682
g2634
s(I28
I30
tp4683
(dp4684
ssg650
(dp4685
(I17
I29
tp4686
(dp4687
s(I0
I14
tp4688
g2657
s(I15
I29
tp4689
g4531
s(I0
I12
tp4690
(dp4691
ssg652
(dp4692
(I22
I15
tp4693
(dp4694
s(I22
I17
tp4695
g3482
s(I7
I0
tp4696
(dp4697
s(I5
I0
tp4698
(dp4699
ssg654
(dp4700
(I5
I25
tp4701
(dp4702
s(I5
I23
tp4703
(dp4704
s(I22
I8
tp4705
(dp4706
s(I20
I8
tp4707
g3798
ssg656
(dp4708
(I20
I24
tp4709
(dp4710
s(I3
I7
tp4711
(dp4712
s(I3
I9
tp4713
(dp4714
s(I18
I24
tp4715
(dp4716
ssg658
(dp4717
(I18
I24
tp4718
(dp4719
s(I16
I24
tp4720
g3810
s(I1
I9
tp4721
(dp4722
s(I1
I7
tp4723
(dp4724
ssg660
(dp4725
(I23
I20
tp4726
g3506
s(I23
I22
tp4727
(dp4728
s(I8
I5
tp4729
g2200
s(I6
I5
tp4730
(dp4731
ssg662
(dp4732
(I21
I7
tp4733
(dp4734
s(I23
I7
tp4735
(dp4736
s(I6
I24
tp4737
(dp4738
s(I6
I22
tp4739
(dp4740
ssg664
(dp4741
(I4
I2
tp4742
(dp4743
s(I4
I4
tp4744
(dp4745
s(I19
I19
tp4746
(dp4747
s(I21
I19
tp4748
(dp4749
ssg666
(dp4750
(I2
I16
tp4751
g3952
s(I2
I14
tp4752
(dp4753
s(I19
I31
tp4754
(dp4755
s(I17
I31
tp4756
(dp4757
ssg668
(dp4758
(I24
I6
tp4759
(dp4760
s(I7
I21
tp4761
g4728
s(I7
I23
tp4762
(dp4763
s(I22
I6
tp4764
(dp4765
ssg670
(dp4766
(I5
I1
tp4767
g2715
s(I22
I18
tp4768
(dp4769
s(I20
I18
tp4770
(dp4771
s(I5
I3
tp4772
(dp4773
ssg672
(dp4774
(I24
I10
tp4775
(dp4776
s(I24
I8
tp4777
(dp4778
s(I9
I25
tp4779
(dp4780
s(I7
I25
tp4781
g2143
ssg674
(dp4782
(I21
I25
tp4783
(dp4784
s(I6
I10
tp4785
(dp4786
s(I6
I8
tp4787
(dp4788
s(I23
I25
tp4789
g4491
ssg676
(dp4790
(I25
I5
tp4791
(dp4792
s(I25
I3
tp4793
g3028
s(I10
I20
tp4794
(dp4795
s(I8
I20
tp4796
g3873
ssg678
(dp4797
(I7
I11
tp4798
(dp4799
s(I7
I13
tp4800
(dp4801
s(I24
I28
tp4802
g2904
s(I22
I28
tp4803
g4469
ssg680
(dp4804
(I9
I19
tp4805
g2574
s(I26
I2
tp4806
(dp4807
s(I11
I19
tp4808
g3263
s(I26
I4
tp4809
(dp4810
ssg682
(dp4811
(I31
I27
tp4812
g3131
s(I14
I10
tp4813
(dp4814
s(I16
I10
tp4815
(dp4816
s(I31
I25
tp4817
(dp4818
ssg684
(dp4819
(I12
I26
tp4820
(dp4821
s(I27
I9
tp4822
(dp4823
s(I27
I11
tp4824
(dp4825
s(I10
I26
tp4826
g3244
ssg686
(dp4827
(I1
I5
tp4828
(dp4829
s(I16
I20
tp4830
g3155
s(I16
I22
tp4831
g4427
ssg688
(dp4832
(I8
I17
tp4833
(dp4834
s(I25
I2
tp4835
(dp4836
s(I8
I19
tp4837
(dp4838
s(I23
I2
tp4839
(dp4840
ssg690
(dp4841
(I30
I4
tp4842
(dp4843
s(I15
I21
tp4844
(dp4845
s(I13
I21
tp4846
(dp4847
s(I30
I6
tp4848
(dp4849
ssg692
(dp4850
(I28
I14
tp4851
(dp4852
s(I28
I12
tp4853
(dp4854
s(I13
I29
tp4855
(dp4856
s(I11
I29
tp4857
(dp4858
ssg694
(dp4859
(I2
I0
tp4860
(dp4861
s(I0
I0
tp4862
g3967
s(I17
I17
tp4863
g3190
s(I17
I15
tp4864
(dp4865
ssg696
(dp4866
(I9
I18
tp4867
(dp4868
s(I24
I3
tp4869
(dp4870
s(I26
I3
tp4871
g3349
s(I9
I20
tp4872
g2897
ssg698
(dp4873
(I16
I16
tp4874
(dp4875
s(I14
I16
tp4876
(dp4877
s(I31
I1
tp4878
(dp4879
ssg700
(dp4880
(I29
I17
tp4881
g2340
s(I29
I15
tp4882
(dp4883
s(I14
I0
tp4884
(dp4885
s(I12
I0
tp4886
(dp4887
ssg702
(dp4888
(I3
I7
tp4889
(dp4890
s(I18
I24
tp4891
(dp4892
s(I18
I22
tp4893
g3204
s(I1
I7
tp4894
(dp4895
ssg704
(dp4896
(I10
I7
tp4897
g2223
s(I27
I24
tp4898
g3985
s(I25
I24
tp4899
(dp4900
s(I10
I9
tp4901
g2869
ssg706
(dp4902
(I1
I27
tp4903
(dp4904
s(I16
I10
tp4905
(dp4906
s(I16
I12
tp4907
(dp4908
ssg708
(dp4909
(I19
I7
tp4910
(dp4911
s(I2
I22
tp4912
(dp4913
s(I4
I22
tp4914
(dp4915
s(I19
I5
tp4916
(dp4917
ssg710
(dp4918
(I28
I21
tp4919
(dp4920
s(I26
I21
tp4921
g3962
s(I11
I4
tp4922
g2892
s(I11
I6
tp4923
g4176
ssg712
(dp4924
(I17
I9
tp4925
(dp4926
s(I17
I11
tp4927
(dp4928
s(I0
I26
tp4929
(dp4930
s(I2
I26
tp4931
(dp4932
ssg714
(dp4933
(I5
I17
tp4934
(dp4935
s(I3
I17
tp4936
g2737
s(I20
I0
tp4937
(dp4938
s(I20
I2
tp4939
(dp4940
ssg716
(dp4941
(I12
I5
tp4942
(dp4943
s(I29
I22
tp4944
g3364
s(I12
I7
tp4945
g2926
s(I27
I22
tp4946
g4573
ssg718
(dp4947
(I15
I12
tp4948
(dp4949
s(I30
I27
tp4950
g2762
s(I15
I10
tp4951
g2949
ssg720
(dp4952
(I6
I20
tp4953
(dp4954
s(I4
I20
tp4955
g4065
s(I21
I5
tp4956
(dp4957
s(I21
I3
tp4958
(dp4959
ssg722
(dp4960
(I13
I6
tp4961
g2958
s(I28
I23
tp4962
g3334
s(I30
I23
tp4963
(dp4964
s(I13
I8
tp4965
(dp4966
ssg724
(dp4967
(I15
I20
tp4968
g4233
s(I0
I3
tp4969
(dp4970
s(I0
I5
tp4971
g2986
s(I17
I20
tp4972
g2140
ssg726
(dp4973
(I7
I27
tp4974
g3471
s(I22
I10
tp4975
(dp4976
s(I22
I12
tp4977
g2517
s(I5
I27
tp4978
g4673
ssg728
(dp4979
(I14
I19
tp4980
g2915
s(I31
I4
tp4981
(dp4982
s(I29
I4
tp4983
g2724
s(I14
I21
tp4984
(dp4985
ssg730
(dp4986
(I3
I16
tp4987
(dp4988
s(I3
I18
tp4989
(dp4990
s(I20
I1
tp4991
g3490
s(I18
I1
tp4992
(dp4993
ssg732
(dp4994
(I1
I2
tp4995
(dp4996
s(I16
I17
tp4997
(dp4998
s(I1
I0
tp4999
g3019
s(I18
I17
tp5000
g3498
ssg734
(dp5001
(I23
I19
tp5002
g2496
s(I6
I2
tp5003
(dp5004
s(I8
I2
tp5005
g4504
s(I23
I17
tp5006
(dp5007
ssg736
(dp5008
(I30
I1
tp5009
(dp5010
s(I15
I16
tp5011
(dp5012
s(I15
I18
tp5013
(dp5014
ssg738
(dp5015
(I21
I26
tp5016
g3447
s(I19
I26
tp5017
(dp5018
s(I4
I9
tp5019
(dp5020
s(I4
I11
tp5021
g3031
ssg740
(dp5022
(I2
I7
tp5023
g3053
s(I2
I5
tp5024
g4322
s(I17
I22
tp5025
(dp5026
s(I19
I22
tp5027
(dp5028
ssg742
(dp5029
(I0
I25
tp5030
(dp5031
s(I17
I10
tp5032
g3468
s(I0
I27
tp5033
(dp5034
s(I15
I10
tp5035
g2953
ssg744
(dp5036
(I22
I27
tp5037
(dp5038
s(I5
I12
tp5039
(dp5040
s(I5
I10
tp5041
g3064
s(I20
I27
tp5042
g3425
ssg746
(dp5043
(I1
I26
tp5044
(dp5045
s(I16
I11
tp5046
g3430
s(I18
I11
tp5047
(dp5048
s(I1
I28
tp5049
g2282
ssg748
(dp5050
(I6
I1
tp5051
g3089
s(I23
I16
tp5052
(dp5053
s(I21
I16
tp5054
(dp5055
ssg750
(dp5056
(I25
I14
tp5057
(dp5058
s(I10
I29
tp5059
(dp5060
s(I8
I29
tp5061
(dp5062
s(I25
I12
tp5063
(dp5064
ssg752
(dp5065
(I7
I4
tp5066
g3122
s(I7
I6
tp5067
g4396
s(I24
I21
tp5068
g2583
s(I22
I21
tp5069
(dp5070
ssg754
(dp5071
(I9
I26
tp5072
g4184
s(I11
I26
tp5073
g2973
s(I26
I11
tp5074
(dp5075
s(I26
I9
tp5076
(dp5077
ssg756
(dp5078
(I24
I21
tp5079
g2581
s(I7
I6
tp5080
g4394
s(I9
I6
tp5081
g3540
s(I24
I23
tp5082
g3892
ssg758
(dp5083
(I27
I4
tp5084
(dp5085
s(I27
I2
tp5086
(dp5087
s(I10
I19
tp5088
g2935
s(I12
I19
tp5089
g3608
ssg760
(dp5090
(I10
I7
tp5091
g2225
s(I25
I24
tp5092
(dp5093
s(I25
I22
tp5094
g3930
s(I8
I7
tp5095
g3526
ssg762
(dp5096
(I25
I9
tp5097
(dp5098
s(I8
I24
tp5099
(dp5100
s(I8
I26
tp5101
(dp5102
s(I23
I9
tp5103
g2534
ssg764
(dp5104
(I15
I28
tp5105
(dp5106
s(I30
I11
tp5107
g4645
s(I13
I28
tp5108
(dp5109
s(I30
I13
tp5110
(dp5111
ssg766
(dp5112
(I28
I5
tp5113
(dp5114
s(I13
I20
tp5115
g2309
s(I11
I20
tp5116
(dp5117
s(I28
I3
tp5118
g4008
ssg768
(dp5119
(I26
I19
tp5120
(dp5121
s(I26
I21
tp5122
g3960
s(I11
I4
tp5123
g2890
s(I9
I4
tp5124
g4795
ssg770
(dp5125
(I9
I21
tp5126
(dp5127
s(I9
I19
tp5128
g2576
s(I26
I4
tp5129
(dp5130
s(I24
I4
tp5131
g4272
ssg772
(dp5132
(I16
I25
tp5133
(dp5134
s(I14
I25
tp5135
(dp5136
s(I31
I8
tp5137
(dp5138
s(I31
I10
tp5139
(dp5140
ssg774
(dp5141
(I29
I10
tp5142
(dp5143
s(I14
I25
tp5144
(dp5145
s(I12
I25
tp5146
(dp5147
s(I29
I8
tp5148
(dp5149
ssg776
(dp5150
(I27
I24
tp5151
g3983
s(I27
I26
tp5152
(dp5153
s(I12
I9
tp5154
(dp5155
s(I10
I9
tp5156
g2871
ssg778
(dp5157
(I27
I3
tp5158
g3679
s(I25
I3
tp5159
g3026
s(I10
I20
tp5160
g5121
s(I10
I18
tp5161
(dp5162
ssg780
(dp5163
(I1
I18
tp5164
g3615
s(I16
I1
tp5165
(dp5166
s(I16
I3
tp5167
(dp5168
ssg782
(dp5169
(I2
I31
tp5170
(dp5171
s(I19
I16
tp5172
(dp5173
s(I4
I31
tp5174
(dp5175
s(I19
I14
tp5176
(dp5177
ssg784
(dp5178
(I28
I10
tp5179
g2381
s(I11
I25
tp5180
g5153
s(I11
I27
tp5181
(dp5182
s(I26
I10
tp5183
g3658
ssg786
(dp5184
(I17
I2
tp5185
(dp5186
s(I0
I19
tp5187
g3580
s(I2
I19
tp5188
(dp5189
s(I17
I4
tp5190
g4081
ssg788
(dp5191
(I3
I24
tp5192
g4358
s(I20
I7
tp5193
g2167
s(I20
I9
tp5194
(dp5195
s(I5
I24
tp5196
g2401
ssg790
(dp5197
(I12
I28
tp5198
(dp5199
s(I29
I13
tp5200
(dp5201
s(I12
I30
tp5202
(dp5203
s(I27
I13
tp5204
(dp5205
ssg792
(dp5206
(I3
I24
tp5207
g4352
s(I18
I7
tp5208
(dp5209
s(I1
I24
tp5210
(dp5211
s(I18
I9
tp5212
(dp5213
ssg794
(dp5214
(I4
I29
tp5215
(dp5216
s(I21
I14
tp5217
(dp5218
s(I21
I12
tp5219
(dp5220
s(I6
I29
tp5221
(dp5222
ssg796
(dp5223
(I13
I1
tp5224
(dp5225
s(I30
I16
tp5226
g2435
s(I28
I16
tp5227
(dp5228
ssg798
(dp5229
(I4
I5
tp5230
g2376
s(I2
I5
tp5231
g4326
s(I19
I20
tp5232
g4076
s(I19
I22
tp5233
(dp5234
ssg800
(dp5235
(I22
I3
tp5236
(dp5237
s(I22
I1
tp5238
(dp5239
s(I5
I18
tp5240
g4411
s(I7
I18
tp5241
g5004
ssg802
(dp5242
(I29
I15
tp5243
(dp5244
s(I31
I15
tp5245
g2388
s(I14
I30
tp5246
(dp5247
ssg804
(dp5248
(I5
I6
tp5249
g3723
s(I20
I21
tp5250
g2805
s(I20
I23
tp5251
g4105
s(I3
I6
tp5252
g4915
ssg806
(dp5253
(I3
I23
tp5254
(dp5255
s(I18
I6
tp5256
g5028
s(I20
I6
tp5257
(dp5258
s(I3
I21
tp5259
g5234
ssg808
(dp5260
(I6
I27
tp5261
g3160
s(I23
I12
tp5262
g4799
s(I8
I27
tp5263
g4163
s(I23
I10
tp5264
(dp5265
ssg810
(dp5266
(I15
I29
tp5267
g4529
s(I15
I31
tp5268
(dp5269
s(I30
I14
tp5270
g2363
ssg812
(dp5271
(I21
I22
tp5272
g4126
s(I4
I7
tp5273
g3698
s(I6
I7
tp5274
g4363
s(I21
I24
tp5275
g4704
ssg814
(dp5276
(I4
I18
tp5277
(dp5278
s(I19
I1
tp5279
g3181
s(I21
I1
tp5280
(dp5281
s(I4
I16
tp5282
(dp5283
ssg816
(dp5284
(I2
I0
tp5285
(dp5286
s(I19
I17
tp5287
g4993
s(I17
I17
tp5288
g3192
s(I2
I2
tp5289
(dp5290
ssg818
(dp5291
(I17
I1
tp5292
g4998
s(I0
I16
tp5293
(dp5294
s(I0
I18
tp5295
(dp5296
s(I15
I1
tp5297
(dp5298
ssg820
(dp5299
(I22
I4
tp5300
(dp5301
s(I20
I4
tp5302
g4477
s(I5
I21
tp5303
(dp5304
s(I5
I19
tp5305
(dp5306
ssg822
(dp5307
(I1
I29
tp5308
(dp5309
s(I1
I27
tp5310
(dp5311
s(I18
I12
tp5312
(dp5313
s(I16
I12
tp5314
(dp5315
ssg824
(dp5316
(I6
I28
tp5317
g2109
s(I6
I26
tp5318
(dp5319
s(I23
I11
tp5320
g3853
s(I21
I11
tp5321
g5038
ssg826
(dp5322
(I17
I11
tp5323
(dp5324
s(I19
I11
tp5325
(dp5326
s(I2
I28
tp5327
g4605
s(I2
I26
tp5328
(dp5329
ssg828
(dp5330
(I7
I3
tp5331
g2072
s(I22
I18
tp5332
(dp5333
s(I24
I18
tp5334
g4840
s(I7
I1
tp5335
(dp5336
ssg830
(dp5337
(I9
I13
tp5338
g5062
s(I7
I13
tp5339
(dp5340
s(I24
I28
tp5341
g2908
s(I24
I30
tp5342
g4191
ssg832
(dp5343
(I10
I8
tp5344
(dp5345
s(I8
I8
tp5346
(dp5347
s(I25
I25
tp5348
g2944
s(I25
I23
tp5349
(dp5350
ssg834
(dp5351
(I13
I7
tp5352
(dp5353
s(I30
I22
tp5354
g3758
s(I15
I7
tp5355
(dp5356
s(I30
I24
tp5357
(dp5358
ssg836
(dp5359
(I28
I2
tp5360
(dp5361
s(I28
I4
tp5362
g3710
s(I11
I19
tp5363
g3265
s(I13
I19
tp5364
(dp5365
ssg838
(dp5366
(I11
I15
tp5367
g2561
s(I26
I30
tp5368
g2976
s(I9
I15
tp5369
g3843
ssg840
(dp5370
(I24
I13
tp5371
(dp5372
s(I26
I13
tp5373
(dp5374
s(I9
I30
tp5375
(dp5376
s(I9
I28
tp5377
(dp5378
ssg842
(dp5379
(I16
I6
tp5380
(dp5381
s(I31
I21
tp5382
g2467
s(I31
I23
tp5383
g3789
s(I14
I6
tp5384
(dp5385
ssg844
(dp5386
(I12
I18
tp5387
(dp5388
s(I14
I18
tp5389
(dp5390
s(I29
I1
tp5391
(dp5392
s(I29
I3
tp5393
(dp5394
ssg846
(dp5395
(I27
I31
tp5396
g3012
s(I10
I14
tp5397
g2549
s(I12
I14
tp5398
(dp5399
s(I27
I29
tp5400
(dp5401
ssg848
(dp5402
(I25
I10
tp5403
g4583
s(I27
I10
tp5404
g3380
s(I10
I27
tp5405
(dp5406
s(I10
I25
tp5407
(dp5408
ssg850
(dp5409
(I16
I24
tp5410
g3808
s(I1
I9
tp5411
(dp5412
s(I16
I26
tp5413
g5031
ssg852
(dp5414
(I25
I22
tp5415
g3928
s(I23
I22
tp5416
g4760
s(I8
I5
tp5417
g2202
s(I8
I7
tp5418
g3520
ssg854
(dp5419
(I13
I9
tp5420
g5147
s(I11
I9
tp5421
(dp5422
s(I28
I24
tp5423
g3044
s(I28
I26
tp5424
g4316
ssg856
(dp5425
(I26
I3
tp5426
g3353
s(I11
I18
tp5427
(dp5428
s(I11
I20
tp5429
(dp5430
s(I28
I3
tp5431
g4010
ssg858
(dp5432
(I17
I5
tp5433
(dp5434
s(I17
I3
tp5435
g3776
s(I2
I20
tp5436
(dp5437
s(I0
I20
tp5438
(dp5439
ssg860
(dp5440
(I26
I23
tp5441
g2654
s(I9
I8
tp5442
(dp5443
s(I9
I6
tp5444
g3544
s(I24
I23
tp5445
g3898
ssg862
(dp5446
(I14
I12
tp5447
g5109
s(I12
I12
tp5448
(dp5449
s(I29
I29
tp5450
g3071
s(I29
I27
tp5451
g4345
ssg864
(dp5452
(I12
I21
tp5453
(dp5454
s(I29
I4
tp5455
g2726
s(I27
I4
tp5456
(dp5457
s(I12
I19
tp5458
g3606
ssg866
(dp5459
(I18
I2
tp5460
(dp5461
s(I1
I19
tp5462
(dp5463
s(I3
I19
tp5464
g4045
s(I18
I4
tp5465
(dp5466
ssg868
(dp5467
(I27
I20
tp5468
g3301
s(I10
I5
tp5469
g3558
s(I10
I3
tp5470
g4810
s(I25
I20
tp5471
g5130
ssg870
(dp5472
(I28
I9
tp5473
(dp5474
s(I30
I9
tp5475
(dp5476
s(I13
I26
tp5477
(dp5478
s(I13
I24
tp5479
(dp5480
ssg872
(dp5481
(I4
I10
tp5482
(dp5483
s(I19
I25
tp5484
(dp5485
s(I19
I27
tp5486
g3111
s(I2
I10
tp5487
g4017
ssg874
(dp5488
(I11
I8
tp5489
g3575
s(I11
I10
tp5490
g4823
s(I28
I25
tp5491
(dp5492
s(I26
I25
tp5493
g3270
ssg876
(dp5494
(I22
I4
tp5495
(dp5496
s(I7
I21
tp5497
g4731
s(I5
I21
tp5498
(dp5499
s(I22
I6
tp5500
(dp5501
ssg878
(dp5502
(I29
I22
tp5503
g3358
s(I31
I22
tp5504
(dp5505
s(I14
I7
tp5506
g3595
s(I14
I5
tp5507
g4849
ssg880
(dp5508
(I20
I30
tp5509
g4416
s(I20
I28
tp5510
g3143
s(I5
I13
tp5511
g5216
s(I3
I13
tp5512
g3970
ssg882
(dp5513
(I18
I15
tp5514
g4755
s(I20
I15
tp5515
(dp5516
s(I3
I30
tp5517
(dp5518
ssg884
(dp5519
(I8
I16
tp5520
(dp5521
s(I6
I16
tp5522
g4697
s(I23
I1
tp5523
(dp5524
ssg886
(dp5525
(I30
I23
tp5526
(dp5527
s(I15
I6
tp5528
g3634
s(I15
I8
tp5529
(dp5530
ssg888
(dp5531
(I21
I17
tp5532
g3175
s(I21
I15
tp5533
g2505
s(I6
I0
tp5534
(dp5535
s(I4
I0
tp5536
(dp5537
ssg890
(dp5538
(I19
I8
tp5539
g4710
s(I4
I23
tp5540
(dp5541
s(I4
I25
tp5542
(dp5543
s(I21
I8
tp5544
g2832
ssg892
(dp5545
(I0
I9
tp5546
g3664
s(I17
I24
tp5547
g2837
s(I15
I24
tp5548
g3565
s(I0
I7
tp5549
g4263
ssg894
(dp5550
(I5
I15
tp5551
g4028
s(I7
I15
tp5552
g2789
s(I22
I30
tp5553
g3199
ssg896
(dp5554
(I5
I30
tp5555
(dp5556
s(I20
I13
tp5557
(dp5558
s(I5
I28
tp5559
(dp5560
s(I22
I13
tp5561
(dp5562
ssg898
(dp5563
(I20
I21
tp5564
g2807
s(I18
I21
tp5565
(dp5566
s(I3
I4
tp5567
g3676
s(I3
I6
tp5568
g4917
ssg900
(dp5569
(I16
I5
tp5570
(dp5571
s(I18
I5
tp5572
g2810
s(I1
I22
tp5573
(dp5574
s(I1
I20
tp5575
(dp5576
ssg902
(dp5577
(I8
I14
tp5578
g3828
s(I23
I29
tp5579
(dp5580
s(I23
I31
tp5581
g3212
s(I6
I14
tp5582
g2753
ssg904
(dp5583
(I6
I19
tp5584
(dp5585
s(I6
I17
tp5586
(dp5587
s(I21
I2
tp5588
g4769
s(I23
I2
tp5589
g5333
ssg906
(dp5590
(I4
I5
tp5591
g2374
s(I21
I22
tp5592
g4130
s(I4
I7
tp5593
g3700
s(I19
I22
tp5594
g5258
ssg908
(dp5595
(I17
I2
tp5596
(dp5597
s(I19
I2
tp5598
(dp5599
s(I2
I19
tp5600
(dp5601
s(I2
I17
tp5602
(dp5603
ssg910
(dp5604
(I7
I28
tp5605
g4464
s(I22
I11
tp5606
g3533
s(I24
I11
tp5607
g4548
s(I7
I26
tp5608
(dp5609
ssg912
(dp5610
(I5
I6
tp5611
g3721
s(I20
I23
tp5612
g4103
s(I22
I23
tp5613
g4734
s(I5
I8
tp5614
g4337
ssg914
(dp5615
(I7
I20
tp5616
(dp5617
s(I24
I3
tp5618
(dp5619
s(I24
I5
tp5620
(dp5621
s(I9
I20
tp5622
g2901
ssg916
(dp5623
(I8
I17
tp5624
(dp5625
s(I25
I2
tp5626
(dp5627
s(I25
I0
tp5628
(dp5629
s(I10
I17
tp5630
g4216
ssg918
(dp5631
(I13
I14
tp5632
(dp5633
s(I15
I14
tp5634
(dp5635
s(I30
I31
tp5636
g5247
s(I30
I29
tp5637
(dp5638
ssg920
(dp5639
(I26
I7
tp5640
(dp5641
s(I26
I5
tp5642
(dp5643
s(I9
I22
tp5644
(dp5645
s(I11
I22
tp5646
g2239
ssg922
(dp5647
(I31
I30
tp5648
g5269
s(I14
I15
tp5649
(dp5650
s(I16
I15
tp5651
(dp5652
ssg924
(dp5653
(I10
I7
tp5654
g2219
s(I27
I24
tp5655
g3981
s(I12
I7
tp5656
g2922
s(I27
I22
tp5657
g4570
ssg926
(dp5658
(I16
I17
tp5659
g5294
s(I1
I0
tp5660
g3017
s(I16
I15
tp5661
(dp5662
ssg928
(dp5663
(I8
I14
tp5664
g3826
s(I23
I29
tp5665
(dp5666
s(I25
I29
tp5667
g5372
s(I8
I12
tp5668
g2512
ssg930
(dp5669
(I30
I1
tp5670
(dp5671
s(I15
I16
tp5672
(dp5673
s(I13
I16
tp5674
g4885
ssg932
(dp5675
(I11
I0
tp5676
(dp5677
s(I28
I15
tp5678
g4663
s(I28
I17
tp5679
g4602
s(I13
I0
tp5680
(dp5681
ssg934
(dp5682
(I17
I30
tp5683
g4133
s(I2
I13
tp5684
(dp5685
s(I0
I13
tp5686
(dp5687
s(I17
I28
tp5688
g5309
ssg936
(dp5689
(I26
I24
tp5690
(dp5691
s(I24
I24
tp5692
(dp5693
s(I9
I9
tp5694
g2529
s(I9
I7
tp5695
(dp5696
ssg938
(dp5697
(I31
I4
tp5698
(dp5699
s(I31
I6
tp5700
g2075
s(I16
I21
tp5701
(dp5702
s(I14
I21
tp5703
(dp5704
ssg940
(dp5705
(I12
I5
tp5706
(dp5707
s(I29
I22
tp5708
g3362
s(I29
I20
tp5709
g4624
s(I14
I5
tp5710
g4847
ssg942
(dp5711
(I12
I18
tp5712
(dp5713
s(I12
I20
tp5714
g3295
s(I27
I3
tp5715
g3684
s(I29
I3
tp5716
(dp5717
ssg944
(dp5718
(I1
I10
tp5719
g4932
s(I3
I10
tp5720
(dp5721
s(I18
I27
tp5722
g5329
s(I18
I25
tp5723
(dp5724
ssg946
(dp5725
(I10
I16
tp5726
(dp5727
s(I27
I31
tp5728
g3008
s(I10
I14
tp5729
g2543
s(I25
I31
tp5730
g4221
ssg948
(dp5731
(I13
I17
tp5732
(dp5733
s(I30
I2
tp5734
g3097
s(I28
I2
tp5735
(dp5736
s(I13
I19
tp5737
(dp5738
ssg950
(dp5739
(I19
I4
tp5740
g2129
s(I19
I2
tp5741
(dp5742
s(I2
I19
tp5743
(dp5744
s(I4
I19
tp5745
g4380
ssg952
(dp5746
(I11
I15
tp5747
g2567
s(I26
I30
tp5748
g2982
s(I28
I30
tp5749
(dp5750
s(I11
I13
tp5751
(dp5752
ssg954
(dp5753
(I29
I25
tp5754
g5476
s(I14
I10
tp5755
(dp5756
s(I14
I8
tp5757
g2590
s(I31
I25
tp5758
(dp5759
ssg956
(dp5760
(I20
I5
tp5761
(dp5762
s(I5
I20
tp5763
g3136
s(I3
I20
tp5764
(dp5765
s(I20
I3
tp5766
g4745
ssg958
(dp5767
(I12
I10
tp5768
g3909
s(I27
I25
tp5769
(dp5770
s(I29
I25
tp5771
g5474
s(I12
I8
tp5772
g2601
ssg960
(dp5773
(I15
I11
tp5774
(dp5775
s(I15
I13
tp5776
g2623
s(I30
I28
tp5777
(dp5778
ssg962
(dp5779
(I21
I26
tp5780
g3445
s(I6
I9
tp5781
(dp5782
s(I4
I9
tp5783
(dp5784
s(I21
I24
tp5785
g4702
ssg964
(dp5786
(I30
I28
tp5787
(dp5788
s(I28
I28
tp5789
(dp5790
s(I13
I13
tp5791
g2636
s(I13
I11
tp5792
g3943
ssg966
(dp5793
(I0
I14
tp5794
g2661
s(I0
I16
tp5795
g5662
s(I15
I31
tp5796
g5652
s(I17
I31
tp5797
(dp5798
ssg968
(dp5799
(I5
I6
tp5800
g3725
s(I7
I6
tp5801
g4400
s(I22
I23
tp5802
g4740
s(I22
I21
tp5803
(dp5804
ssg970
(dp5805
(I14
I20
tp5806
(dp5807
s(I31
I3
tp5808
(dp5809
s(I14
I18
tp5810
(dp5811
s(I29
I3
tp5812
(dp5813
ssg972
(dp5814
(I20
I26
tp5815
(dp5816
s(I3
I9
tp5817
(dp5818
s(I3
I11
tp5819
g2666
s(I18
I26
tp5820
(dp5821
ssg974
(dp5822
(I1
I13
tp5823
g3988
s(I18
I30
tp5824
(dp5825
s(I16
I30
tp5826
(dp5827
s(I1
I15
tp5828
g2685
ssg976
(dp5829
(I23
I24
tp5830
(dp5831
s(I23
I22
tp5832
g4763
s(I6
I7
tp5833
g4365
s(I8
I7
tp5834
g3524
ssg978
(dp5835
(I6
I20
tp5836
(dp5837
s(I23
I5
tp5838
g5070
s(I21
I5
tp5839
(dp5840
s(I6
I22
tp5841
g5804
ssg980
(dp5842
(I21
I29
tp5843
g5558
s(I4
I12
tp5844
g2690
s(I4
I14
tp5845
g3999
s(I19
I29
tp5846
g4385
ssg982
(dp5847
(I17
I29
tp5848
(dp5849
s(I2
I14
tp5850
(dp5851
s(I2
I12
tp5852
g2709
s(I19
I29
tp5853
g4387
ssg984
(dp5854
(I22
I0
tp5855
g5053
s(I24
I0
tp5856
(dp5857
s(I7
I15
tp5858
g2785
s(I7
I17
tp5859
(dp5860
ssg986
(dp5861
(I5
I1
tp5862
g2721
s(I22
I16
tp5863
(dp5864
s(I20
I16
tp5865
(dp5866
ssg988
(dp5867
(I7
I27
tp5868
g3475
s(I9
I27
tp5869
(dp5870
s(I24
I10
tp5871
(dp5872
s(I24
I12
tp5873
(dp5874
ssg990
(dp5875
(I21
I31
tp5876
g4444
s(I23
I31
tp5877
g3214
s(I6
I16
tp5878
g4694
s(I6
I14
tp5879
g2755
ssg992
(dp5880
(I25
I9
tp5881
(dp5882
s(I25
I11
tp5883
(dp5884
s(I8
I26
tp5885
(dp5886
s(I10
I26
tp5887
g3242
ssg994
(dp5888
(I24
I30
tp5889
g4189
s(I7
I13
tp5890
(dp5891
s(I7
I15
tp5892
g2787
s(I22
I30
tp5893
g3197
ssg996
(dp5894
(I26
I0
tp5895
(dp5896
s(I11
I17
tp5897
(dp5898
s(I9
I17
tp5899
g3889
s(I26
I2
tp5900
(dp5901
ssg998
(dp5902
(I24
I18
tp5903
g4834
s(I24
I16
tp5904
g3586
s(I9
I1
tp5905
g5625
s(I7
I1
tp5906
(dp5907
ssg1000
(dp5908
(I27
I11
tp5909
(dp5910
s(I12
I28
tp5911
(dp5912
s(I10
I28
tp5913
(dp5914
s(I27
I13
tp5915
(dp5916
ssg1002
(dp5917
(I16
I22
tp5918
g4429
s(I16
I24
tp5919
g3814
s(I1
I7
tp5920
(dp5921
ssg1004
(dp5922
(I23
I4
tp5923
(dp5924
s(I8
I19
tp5925
(dp5926
s(I8
I21
tp5927
(dp5928
s(I25
I4
tp5929
g3320
ssg1006
(dp5930
(I30
I12
tp5931
g3687
s(I15
I27
tp5932
(dp5933
s(I30
I10
tp5934
(dp5935
s(I13
I27
tp5936
(dp5937
ssg1008
(dp5938
(I11
I31
tp5939
(dp5940
s(I13
I31
tp5941
(dp5942
s(I28
I14
tp5943
(dp5944
s(I28
I16
tp5945
(dp5946
ssg1010
(dp5947
(I0
I6
tp5948
(dp5949
s(I2
I6
tp5950
(dp5951
s(I17
I21
tp5952
g5574
s(I17
I23
tp5953
g4457
ssg1012
(dp5954
(I9
I18
tp5955
(dp5956
s(I24
I1
tp5957
(dp5958
s(I9
I16
tp5959
(dp5960
s(I26
I1
tp5961
g4616
ssg1014
(dp5962
(I31
I3
tp5963
(dp5964
s(I14
I18
tp5965
(dp5966
s(I16
I18
tp5967
(dp5968
s(I31
I1
tp5969
(dp5970
ssg1016
(dp5971
(I29
I15
tp5972
(dp5973
s(I29
I13
tp5974
(dp5975
s(I12
I30
tp5976
(dp5977
s(I14
I30
tp5978
g5633
ssg1018
(dp5979
(I1
I5
tp5980
(dp5981
s(I18
I22
tp5982
g3206
s(I18
I20
tp5983
g4484
s(I3
I5
tp5984
(dp5985
ssg1020
(dp5986
(I10
I23
tp5987
(dp5988
s(I10
I21
tp5989
(dp5990
s(I25
I6
tp5991
(dp5992
s(I27
I6
tp5993
g2674
ssg1022
(dp5994
(I1
I29
tp5995
g5687
s(I16
I12
tp5996
(dp5997
s(I16
I14
tp5998
(dp5999
ssg1024
(dp6000
(I2
I24
tp6001
(dp6002
s(I19
I9
tp6003
(dp6004
s(I19
I7
tp6005
(dp6006
s(I4
I24
tp6007
g3391
ssg1026
(dp6008
(I11
I8
tp6009
g3571
s(I26
I23
tp6010
g2648
s(I28
I23
tp6011
g3332
s(I11
I6
tp6012
g4171
ssg1028
(dp6013
(I2
I24
tp6014
(dp6015
s(I0
I24
tp6016
(dp6017
s(I17
I9
tp6018
(dp6019
s(I17
I7
tp6020
(dp6021
ssg1030
(dp6022
(I20
I2
tp6023
(dp6024
s(I20
I4
tp6025
g4480
s(I3
I19
tp6026
g4047
s(I5
I19
tp6027
(dp6028
ssg1032
(dp6029
(I27
I16
tp6030
(dp6031
s(I12
I1
tp6032
g4206
s(I29
I16
tp6033
(dp6034
ssg1034
(dp6035
(I3
I31
tp6036
g3367
s(I18
I16
tp6037
(dp6038
s(I18
I14
tp6039
(dp6040
s(I1
I31
tp6041
g4577
ssg1036
(dp6042
(I4
I18
tp6043
(dp6044
s(I6
I18
tp6045
g3440
s(I21
I1
tp6046
(dp6047
s(I21
I3
tp6048
(dp6049
ssg1038
(dp6050
(I13
I6
tp6051
g2960
s(I28
I21
tp6052
(dp6053
s(I13
I4
tp6054
g4239
s(I30
I21
tp6055
(dp6056
ssg1040
(dp6057
(I17
I22
tp6058
(dp6059
s(I15
I22
tp6060
g5381
s(I0
I5
tp6061
g2988
s(I0
I7
tp6062
g4261
ssg1042
(dp6063
(I5
I25
tp6064
g5782
s(I22
I10
tp6065
(dp6066
s(I22
I8
tp6067
(dp6068
s(I7
I25
tp6069
g2145
ssg1044
(dp6070
(I14
I27
tp6071
(dp6072
s(I14
I25
tp6073
(dp6074
s(I29
I10
tp6075
(dp6076
s(I31
I10
tp6077
(dp6078
ssg1046
(dp6079
(I18
I3
tp6080
g4111
s(I3
I18
tp6081
(dp6082
s(I3
I20
tp6083
(dp6084
s(I20
I3
tp6085
g4747
ssg1048
(dp6086
(I18
I23
tp6087
(dp6088
s(I1
I8
tp6089
g6021
s(I1
I6
tp6090
g4295
s(I16
I23
tp6091
(dp6092
ssg1050
(dp6093
(I6
I28
tp6094
g2107
s(I23
I13
tp6095
(dp6096
s(I23
I11
tp6097
g3851
s(I8
I28
tp6098
(dp6099
ssg1052
(dp6100
(I15
I20
tp6101
g4231
s(I30
I3
tp6102
(dp6103
s(I15
I18
tp6104
(dp6105
ssg1054
(dp6106
(I4
I21
tp6107
(dp6108
s(I21
I4
tp6109
g3513
s(I19
I4
tp6110
g2127
s(I4
I19
tp6111
g4378
ssg1056
(dp6112
(I19
I20
tp6113
g4073
s(I2
I5
tp6114
g4324
s(I2
I3
tp6115
g5466
s(I17
I20
tp6116
g2138
ssg1058
(dp6117
(I15
I12
tp6118
(dp6119
s(I0
I27
tp6120
(dp6121
s(I0
I29
tp6122
(dp6123
s(I17
I12
tp6124
(dp6125
ssg1060
(dp6126
(I20
I25
tp6127
g2093
s(I22
I25
tp6128
(dp6129
s(I5
I10
tp6130
g3062
s(I5
I8
tp6131
g4335
ssg1062
(dp6132
(I1
I26
tp6133
(dp6134
s(I16
I9
tp6135
g2100
s(I1
I24
tp6136
(dp6137
s(I18
I9
tp6138
(dp6139
ssg1064
(dp6140
(I21
I22
tp6141
g4124
s(I23
I22
tp6142
g4765
s(I6
I7
tp6143
g4361
s(I6
I5
tp6144
g5501
ssg1066
(dp6145
(I2
I31
tp6146
(dp6147
s(I2
I29
tp6148
(dp6149
s(I17
I14
tp6150
g5825
s(I19
I14
tp6151
(dp6152
ssg1068
(dp6153
(I22
I23
tp6154
g4736
s(I7
I6
tp6155
g4398
s(I7
I8
tp6156
(dp6157
s(I24
I23
tp6158
g3896
ssg1070
(dp6159
(I11
I24
tp6160
(dp6161
s(I26
I7
tp6162
(dp6163
s(I9
I24
tp6164
g5345
s(I26
I9
tp6165
(dp6166
ssg1072
(dp6167
(I24
I25
tp6168
g5100
s(I9
I8
tp6169
(dp6170
s(I7
I8
tp6171
(dp6172
s(I24
I23
tp6173
g3894
ssg1074
(dp6174
(I12
I21
tp6175
(dp6176
s(I10
I21
tp6177
(dp6178
s(I27
I4
tp6179
(dp6180
s(I27
I6
tp6181
g2678
ssg1076
(dp6182
(I25
I22
tp6183
g3924
s(I10
I5
tp6184
g3554
s(I8
I5
tp6185
g2198
s(I25
I20
tp6186
g5127
ssg1078
(dp6187
(I23
I11
tp6188
g3855
s(I25
I11
tp6189
(dp6190
s(I8
I26
tp6191
(dp6192
s(I8
I28
tp6193
(dp6194
ssg1080
(dp6195
(I30
I19
tp6196
g5811
s(I30
I17
tp6197
(dp6198
s(I13
I2
tp6199
g5390
s(I15
I2
tp6200
g5966
ssg1082
(dp6201
(I13
I22
tp6202
(dp6203
s(I28
I5
tp6204
(dp6205
s(I28
I7
tp6206
(dp6207
s(I11
I22
tp6208
g2241
ssg1084
(dp6209
(I9
I2
tp6210
(dp6211
s(I11
I2
tp6212
(dp6213
s(I26
I19
tp6214
g5162
s(I26
I17
tp6215
(dp6216
ssg1086
(dp6217
(I9
I27
tp6218
(dp6219
s(I9
I25
tp6220
(dp6221
s(I26
I10
tp6222
g3656
s(I24
I10
tp6223
(dp6224
ssg1088
(dp6225
(I14
I27
tp6226
(dp6227
s(I31
I12
tp6228
g5775
s(I16
I27
tp6229
(dp6230
s(I31
I10
tp6231
(dp6232
ssg1090
(dp6233
(I29
I6
tp6234
(dp6235
s(I12
I23
tp6236
(dp6237
s(I14
I23
tp6238
g5353
s(I29
I8
tp6239
(dp6240
ssg1092
(dp6241
(I27
I28
tp6242
(dp6243
s(I27
I26
tp6244
g5182
s(I10
I11
tp6245
(dp6246
s(I12
I11
tp6247
(dp6248
ssg1094
(dp6249
(I10
I16
tp6250
(dp6251
s(I27
I1
tp6252
g2358
s(I25
I1
tp6253
g4303
s(I10
I18
tp6254
g6216
ssg1096
(dp6255
(I16
I3
tp6256
(dp6257
s(I16
I5
tp6258
(dp6259
s(I1
I20
tp6260
(dp6261
ssg1098
(dp6262
(I8
I0
tp6263
g3219
s(I25
I17
tp6264
g5958
s(I8
I2
tp6265
g4500
s(I23
I17
tp6266
(dp6267
ssg1100
(dp6268
(I28
I29
tp6269
g5199
s(I13
I12
tp6270
(dp6271
s(I11
I12
tp6272
g5912
s(I28
I27
tp6273
(dp6274
ssg1102
(dp6275
(I28
I12
tp6276
(dp6277
s(I11
I27
tp6278
g6243
s(I26
I12
tp6279
g2325
s(I11
I29
tp6280
(dp6281
ssg1104
(dp6282
(I0
I17
tp6283
g2248
s(I17
I2
tp6284
(dp6285
s(I17
I0
tp6286
(dp6287
s(I2
I17
tp6288
(dp6289
ssg1106
(dp6290
(I20
I9
tp6291
(dp6292
s(I3
I26
tp6293
g5483
s(I5
I26
tp6294
(dp6295
s(I20
I11
tp6296
(dp6297
ssg1108
(dp6298
(I27
I15
tp6299
(dp6300
s(I29
I15
tp6301
(dp6302
s(I12
I30
tp6303
(dp6304
ssg1110
(dp6305
(I18
I7
tp6306
(dp6307
s(I18
I5
tp6308
g2812
s(I1
I22
tp6309
g5951
s(I3
I22
tp6310
g3078
ssg1112
(dp6311
(I6
I27
tp6312
g3166
s(I21
I12
tp6313
(dp6314
s(I21
I10
tp6315
(dp6316
s(I4
I27
tp6317
(dp6318
ssg1114
(dp6319
(I30
I14
tp6320
g2361
s(I13
I31
tp6321
(dp6322
s(I13
I29
tp6323
(dp6324
s(I28
I14
tp6325
(dp6326
ssg1116
(dp6327
(I2
I7
tp6328
g3051
s(I19
I24
tp6329
(dp6330
s(I4
I7
tp6331
g3696
s(I19
I22
tp6332
g5255
ssg1118
(dp6333
(I22
I1
tp6334
(dp6335
s(I7
I16
tp6336
g3782
s(I5
I16
tp6337
g5535
ssg1120
(dp6338
(I14
I28
tp6339
(dp6340
s(I31
I13
tp6341
(dp6342
s(I29
I13
tp6343
(dp6344
s(I14
I30
tp6345
g5638
ssg1122
(dp6346
(I3
I0
tp6347
(dp6348
s(I20
I15
tp6349
(dp6350
s(I20
I17
tp6351
g5283
s(I5
I0
tp6352
(dp6353
ssg1124
(dp6354
(I3
I23
tp6355
g6330
s(I3
I25
tp6356
(dp6357
s(I20
I8
tp6358
g3793
s(I18
I8
tp6359
g3802
ssg1126
(dp6360
(I23
I4
tp6361
(dp6362
s(I23
I6
tp6363
g2862
s(I8
I21
tp6364
(dp6365
s(I6
I21
tp6366
g3748
ssg1128
(dp6367
(I30
I8
tp6368
(dp6369
s(I15
I23
tp6370
(dp6371
s(I15
I25
tp6372
(dp6373
ssg1130
(dp6374
(I4
I5
tp6375
g2372
s(I21
I22
tp6376
g4128
s(I21
I20
tp6377
g5304
s(I6
I5
tp6378
g5499
ssg1132
(dp6379
(I4
I18
tp6380
(dp6381
s(I4
I20
tp6382
g4068
s(I19
I3
tp6383
g4450
s(I21
I3
tp6384
(dp6385
ssg1134
(dp6386
(I15
I3
tp6387
(dp6388
s(I17
I3
tp6389
g3773
s(I0
I18
tp6390
(dp6391
s(I0
I20
tp6392
(dp6393
ssg1136
(dp6394
(I22
I27
tp6395
g5319
s(I22
I25
tp6396
(dp6397
s(I5
I10
tp6398
g3060
s(I7
I10
tp6399
(dp6400
ssg1138
(dp6401
(I5
I17
tp6402
(dp6403
s(I20
I2
tp6404
(dp6405
s(I22
I2
tp6406
g3838
s(I5
I19
tp6407
(dp6408
ssg1140
(dp6409
(I18
I2
tp6410
(dp6411
s(I1
I19
tp6412
(dp6413
s(I1
I17
tp6414
(dp6415
s(I16
I2
tp6416
g3739
ssg1142
(dp6417
(I21
I9
tp6418
g6129
s(I6
I26
tp6419
g6397
s(I6
I24
tp6420
(dp6421
s(I23
I9
tp6422
g2536
ssg1144
(dp6423
(I2
I24
tp6424
(dp6425
s(I19
I9
tp6426
(dp6427
s(I17
I9
tp6428
(dp6429
s(I2
I26
tp6430
g5724
ssg1146
(dp6431
(I7
I27
tp6432
g3473
s(I7
I29
tp6433
(dp6434
s(I24
I12
tp6435
(dp6436
s(I22
I12
tp6437
g2519
ssg1148
(dp6438
(I24
I30
tp6439
g4193
s(I7
I15
tp6440
g2791
s(I9
I15
tp6441
g3848
ssg1150
(dp6442
(I8
I14
tp6443
g3830
s(I10
I14
tp6444
g2547
s(I25
I29
tp6445
g5376
s(I25
I31
tp6446
g4223
ssg1152
(dp6447
(I30
I20
tp6448
g4985
s(I15
I5
tp6449
g5704
s(I13
I5
tp6450
(dp6451
s(I30
I22
tp6452
g3760
ssg1154
(dp6453
(I9
I13
tp6454
g5060
s(I26
I30
tp6455
g2978
s(I26
I28
tp6456
g4254
s(I11
I13
tp6457
(dp6458
ssg1156
(dp6459
(I16
I0
tp6460
g2417
s(I14
I0
tp6461
g5673
s(I31
I15
tp6462
g2392
s(I31
I17
tp6463
g5012
ssg1158
(dp6464
(I29
I1
tp6465
(dp6466
s(I14
I16
tp6467
(dp6468
s(I12
I16
tp6469
g5681
ssg1160
(dp6470
(I10
I0
tp6471
(dp6472
s(I27
I17
tp6473
g4281
s(I27
I15
tp6474
(dp6475
s(I12
I0
tp6476
(dp6477
ssg1162
(dp6478
(I10
I23
tp6479
(dp6480
s(I27
I8
tp6481
(dp6482
s(I25
I8
tp6483
g5691
s(I10
I25
tp6484
(dp6485
ssg1164
(dp6486
(I1
I11
tp6487
(dp6488
s(I16
I26
tp6489
g5034
s(I16
I28
tp6490
g6121
ssg1166
(dp6491
(I8
I9
tp6492
g4778
s(I25
I24
tp6493
(dp6494
s(I23
I24
tp6495
(dp6496
s(I8
I7
tp6497
g3522
ssg1168
(dp6498
(I28
I26
tp6499
g4318
s(I28
I28
tp6500
(dp6501
s(I11
I11
tp6502
(dp6503
s(I13
I11
tp6504
g3947
ssg1170
(dp6505
(I28
I5
tp6506
(dp6507
s(I26
I5
tp6508
(dp6509
s(I11
I20
tp6510
(dp6511
s(I11
I22
tp6512
g2243
ssg1172
(dp6513
(I17
I27
tp6514
g5045
s(I17
I25
tp6515
g6134
s(I0
I10
tp6516
(dp6517
s(I2
I10
tp6518
g4015
ssg1174
(dp6519
(I24
I21
tp6520
g2579
s(I26
I21
tp6521
g3957
s(I9
I6
tp6522
g3538
s(I9
I4
tp6523
g4792
ssg1176
(dp6524
(I12
I10
tp6525
g3912
s(I14
I10
tp6526
(dp6527
s(I29
I25
tp6528
g5478
s(I29
I27
tp6529
g4347
ssg1178
(dp6530
(I12
I21
tp6531
(dp6532
s(I29
I6
tp6533
(dp6534
s(I12
I23
tp6535
(dp6536
s(I27
I6
tp6537
g2676
ssg1180
(dp6538
(I18
I0
tp6539
(dp6540
s(I3
I17
tp6541
g2739
s(I1
I17
tp6542
(dp6543
s(I18
I2
tp6544
(dp6545
ssg1182
(dp6546
(I25
I18
tp6547
(dp6548
s(I27
I18
tp6549
(dp6550
s(I10
I3
tp6551
g4807
s(I10
I1
tp6552
g5901
ssg1184
(dp6553
(I13
I22
tp6554
(dp6555
s(I28
I7
tp6556
(dp6557
s(I30
I7
tp6558
(dp6559
s(I13
I24
tp6560
(dp6561
ssg1186
(dp6562
(I4
I12
tp6563
g2694
s(I2
I12
tp6564
g2711
s(I19
I27
tp6565
g3113
s(I19
I29
tp6566
g4389
ssg1188
(dp6567
(I26
I27
tp6568
(dp6569
s(I11
I10
tp6570
g4825
s(I11
I12
tp6571
g5910
s(I28
I27
tp6572
(dp6573
ssg1190
(dp6574
(I14
I3
tp6575
(dp6576
s(I31
I20
tp6577
(dp6578
s(I29
I20
tp6579
g4621
s(I14
I5
tp6580
g4843
ssg1192
(dp6581
(I3
I15
tp6582
g5175
s(I5
I15
tp6583
g4026
s(I20
I30
tp6584
g4420
ssg1194
(dp6585
(I12
I13
tp6586
g4854
s(I29
I28
tp6587
(dp6588
s(I27
I28
tp6589
g6277
s(I12
I11
tp6590
(dp6591
ssg1196
(dp6592
(I23
I3
tp6593
(dp6594
s(I6
I18
tp6595
g3442
s(I8
I18
tp6596
g2558
s(I23
I1
tp6597
(dp6598
ssg1198
(dp6599
(I30
I17
tp6600
(dp6601
s(I15
I0
tp6602
g4879
s(I15
I2
tp6603
g5970
ssg1200
(dp6604
(I21
I29
tp6605
g5556
s(I21
I31
tp6606
g4440
s(I4
I14
tp6607
g3997
s(I6
I14
tp6608
g2751
ssg1202
(dp6609
(I21
I10
tp6610
(dp6611
s(I19
I10
tp6612
g5816
s(I4
I25
tp6613
(dp6614
s(I4
I27
tp6615
(dp6616
ssg1204
(dp6617
(I0
I9
tp6618
g3667
s(I17
I26
tp6619
(dp6620
s(I0
I11
tp6621
g4906
s(I15
I26
tp6622
g4816
ssg1206
(dp6623
(I22
I28
tp6624
g4473
s(I7
I13
tp6625
(dp6626
s(I5
I13
tp6627
g5222
s(I22
I30
tp6628
g3201
ssg1208
(dp6629
(I22
I11
tp6630
g3535
s(I5
I28
tp6631
(dp6632
s(I5
I26
tp6633
(dp6634
s(I20
I11
tp6635
(dp6636
ssg1210
(dp6637
(I3
I8
tp6638
g6006
s(I18
I23
tp6639
(dp6640
s(I20
I23
tp6641
g4101
s(I3
I6
tp6642
g4911
ssg1212
(dp6643
(I1
I10
tp6644
g4928
s(I16
I27
tp6645
(dp6646
s(I18
I27
tp6647
g5324
s(I1
I12
tp6648
(dp6649
ssg1214
(dp6650
(I8
I8
tp6651
(dp6652
s(I23
I23
tp6653
(dp6654
s(I6
I8
tp6655
(dp6656
s(I23
I25
tp6657
g4493
ssg1216
(dp6658
(I23
I0
tp6659
g4158
s(I6
I17
tp6660
(dp6661
s(I6
I15
tp6662
(dp6663
s(I21
I0
tp6664
g5864
ssg1218
(dp6665
(I19
I16
tp6666
(dp6667
s(I4
I1
tp6668
g4938
s(I21
I16
tp6669
(dp6670
ssg1220
(dp6671
(I2
I15
tp6672
g6038
s(I19
I0
tp6673
(dp6674
s(I17
I0
tp6675
(dp6676
s(I2
I17
tp6677
(dp6678
ssg1222
(dp6679
(I7
I20
tp6680
(dp6681
s(I7
I22
tp6682
g2458
s(I24
I5
tp6683
(dp6684
s(I22
I5
tp6685
g4144
ssg1224
(dp6686
(I5
I6
tp6687
g3719
s(I20
I21
tp6688
g2801
s(I5
I4
tp6689
g4957
s(I22
I21
tp6690
g5840
ssg1226
(dp6691
(I24
I5
tp6692
(dp6693
s(I7
I22
tp6694
g2456
s(I9
I22
tp6695
(dp6696
s(I24
I7
tp6697
(dp6698
ssg1228
(dp6699
(I6
I11
tp6700
g4976
s(I6
I9
tp6701
g6066
s(I21
I26
tp6702
g3449
s(I23
I26
tp6703
g2181
ssg1230
(dp6704
(I10
I23
tp6705
(dp6706
s(I25
I8
tp6707
g5696
s(I25
I6
tp6708
(dp6709
s(I8
I23
tp6710
(dp6711
ssg1232
(dp6712
(I15
I12
tp6713
(dp6714
s(I30
I27
tp6715
g2760
s(I13
I12
tp6716
(dp6717
s(I30
I29
tp6718
g6340
ssg1234
(dp6719
(I26
I3
tp6720
g3351
s(I26
I5
tp6721
(dp6722
s(I11
I20
tp6723
(dp6724
s(I9
I20
tp6725
g2899
ssg1236
(dp6726
(I16
I9
tp6727
g2104
s(I14
I9
tp6728
(dp6729
s(I31
I24
tp6730
g6373
s(I31
I26
tp6731
(dp6732
ssg1238
(dp6733
(I27
I8
tp6734
(dp6735
s(I27
I10
tp6736
g3376
s(I12
I25
tp6737
g5422
s(I10
I25
tp6738
(dp6739
ssg1240
(dp6740
(I1
I2
tp6741
(dp6742
s(I16
I17
tp6743
g5296
s(I16
I19
tp6744
g6391
ssg1242
(dp6745
(I8
I14
tp6746
g3832
s(I8
I16
tp6747
(dp6748
s(I23
I31
tp6749
g3216
s(I25
I31
tp6750
g4225
ssg1244
(dp6751
(I13
I22
tp6752
(dp6753
s(I15
I22
tp6754
g5385
s(I30
I7
tp6755
(dp6756
s(I30
I5
tp6757
g3388
ssg1246
(dp6758
(I28
I17
tp6759
g4597
s(I11
I2
tp6760
(dp6761
s(I13
I2
tp6762
g5388
s(I28
I19
tp6763
g5713
ssg1248
(dp6764
(I17
I18
tp6765
g6413
s(I0
I3
tp6766
(dp6767
s(I2
I3
tp6768
g5463
s(I17
I20
tp6769
g2136
ssg1250
(dp6770
(I9
I13
tp6771
g5058
s(I26
I30
tp6772
g2980
s(I24
I30
tp6773
g4187
s(I9
I15
tp6774
g3846
ssg1252
(dp6775
(I31
I8
tp6776
(dp6777
s(I31
I6
tp6778
g2077
s(I14
I23
tp6779
g5356
s(I16
I23
tp6780
(dp6781
ssg1254
(dp6782
(I14
I3
tp6783
(dp6784
s(I29
I20
tp6785
g4626
s(I29
I18
tp6786
g5738
s(I12
I3
tp6787
g5365
ssg1256
(dp6788
(I3
I8
tp6789
g6002
s(I18
I23
tp6790
(dp6791
s(I1
I8
tp6792
g6015
s(I18
I25
tp6793
g6425
ssg1258
(dp6794
(I25
I29
tp6795
g5374
s(I10
I14
tp6796
g2545
s(I10
I12
tp6797
g3862
s(I27
I29
tp6798
(dp6799
ssg1260
(dp6800
(I16
I9
tp6801
g2098
s(I1
I24
tp6802
(dp6803
s(I16
I7
tp6804
g2744
ssg1262
(dp6805
(I13
I17
tp6806
(dp6807
s(I13
I15
tp6808
(dp6809
s(I30
I0
tp6810
g4373
s(I28
I0
tp6811
g6034
ssg1264
(dp6812
(I4
I21
tp6813
(dp6814
s(I2
I21
tp6815
g5985
s(I19
I4
tp6816
g2131
s(I19
I6
tp6817
g3459
ssg1266
(dp6818
(I26
I16
tp6819
(dp6820
s(I11
I1
tp6821
g3876
s(I28
I16
tp6822
(dp6823
ssg1268
(dp6824
(I31
I31
tp6825
(dp6826
s(I29
I31
tp6827
(dp6828
s(I14
I16
tp6829
(dp6830
s(I14
I14
tp6831
g3904
ssg1270
(dp6832
(I5
I22
tp6833
(dp6834
s(I20
I5
tp6835
(dp6836
s(I20
I7
tp6837
g2165
s(I3
I22
tp6838
g3080
ssg1272
(dp6839
(I12
I10
tp6840
g3914
s(I12
I12
tp6841
(dp6842
s(I27
I27
tp6843
(dp6844
s(I29
I27
tp6845
g4349
ssg1274
(dp6846
(I15
I13
tp6847
g2625
s(I15
I15
tp6848
g3935
s(I30
I30
tp6849
(dp6850
ssg1276
(dp6851
(I21
I6
tp6852
g2189
s(I4
I23
tp6853
(dp6854
s(I6
I23
tp6855
g2422
s(I21
I8
tp6856
g2828
ssg1278
(dp6857
(I13
I9
tp6858
g5143
s(I30
I26
tp6859
g6076
s(I28
I26
tp6860
g4313
s(I13
I11
tp6861
g3945
ssg1280
(dp6862
(I0
I0
tp6863
g3965
s(I0
I2
tp6864
g5166
s(I17
I17
tp6865
g3188
s(I15
I17
tp6866
(dp6867
ssg1282
(dp6868
(I7
I4
tp6869
g3120
s(I22
I19
tp6870
g2154
s(I5
I4
tp6871
g4954
s(I22
I21
tp6872
g5837
ssg1284
(dp6873
(I29
I1
tp6874
(dp6875
s(I14
I18
tp6876
g6198
s(I14
I16
tp6877
(dp6878
s(I31
I1
tp6879
g6601
ssg1286
(dp6880
(I20
I28
tp6881
g3147
s(I3
I11
tp6882
g2664
s(I18
I28
tp6883
(dp6884
s(I3
I13
tp6885
g3974
ssg1288
(dp6886
(I1
I13
tp6887
g3994
s(I1
I11
tp6888
(dp6889
s(I18
I28
tp6890
(dp6891
s(I16
I28
tp6892
g6125
ssg1290
(dp6893
(I8
I1
tp6894
(dp6895
s(I6
I1
tp6896
g3091
s(I23
I16
tp6897
g5860
s(I23
I18
tp6898
(dp6899
ssg1292
(dp6900
(I15
I19
tp6901
g3253
s(I15
I21
tp6902
(dp6903
s(I30
I4
tp6904
g6578
ssg1294
(dp6905
(I19
I31
tp6906
g5516
s(I21
I31
tp6907
g4442
s(I4
I14
tp6908
g4001
s(I4
I16
tp6909
g6350
ssg1296
(dp6910
(I17
I27
tp6911
g5048
s(I2
I12
tp6912
g2707
s(I19
I27
tp6913
g3109
s(I2
I10
tp6914
g4019
ssg1298
(dp6915
(I7
I19
tp6916
(dp6917
s(I22
I2
tp6918
g3840
s(I24
I2
tp6919
g2997
s(I7
I17
tp6920
g6899
ssg1300
(dp6921
(I5
I15
tp6922
g4024
s(I22
I30
tp6923
g3195
s(I5
I13
tp6924
g5218
s(I20
I30
tp6925
g4418
ssg1302
(dp6926
(I9
I29
tp6927
g3230
s(I7
I29
tp6928
(dp6929
s(I24
I12
tp6930
(dp6931
s(I24
I14
tp6932
g2257
ssg1304
(dp6933
(I6
I12
tp6934
g4055
s(I23
I29
tp6935
(dp6936
s(I21
I29
tp6937
g5562
s(I6
I14
tp6938
g2757
ssg1306
(dp6939
(I10
I24
tp6940
g4524
s(I8
I24
tp6941
g6170
s(I25
I9
tp6942
(dp6943
s(I25
I7
tp6944
g5443
ssg1308
(dp6945
(I22
I24
tp6946
(dp6947
s(I24
I24
tp6948
(dp6949
s(I7
I7
tp6950
(dp6951
s(I7
I9
tp6952
g4090
ssg1310
(dp6953
(I26
I16
tp6954
(dp6955
s(I11
I31
tp6956
(dp6957
s(I26
I14
tp6958
(dp6959
s(I9
I31
tp6960
(dp6961
ssg1312
(dp6962
(I7
I3
tp6963
g2070
s(I9
I3
tp6964
g4509
s(I24
I18
tp6965
g4838
s(I24
I20
tp6966
g5926
ssg1314
(dp6967
(I27
I15
tp6968
(dp6969
s(I10
I30
tp6970
(dp6971
s(I12
I30
tp6972
(dp6973
s(I27
I13
tp6974
(dp6975
ssg1316
(dp6976
(I25
I19
tp6977
g4868
s(I25
I17
tp6978
g5956
s(I8
I2
tp6979
g4498
s(I10
I2
tp6980
(dp6981
ssg1318
(dp6982
(I25
I6
tp6983
(dp6984
s(I23
I6
tp6985
g2860
s(I8
I21
tp6986
(dp6987
s(I8
I23
tp6988
(dp6989
ssg1320
(dp6990
(I13
I25
tp6991
g3325
s(I30
I10
tp6992
(dp6993
s(I30
I8
tp6994
(dp6995
s(I15
I25
tp6996
g6729
ssg1322
(dp6997
(I28
I8
tp6998
(dp6999
s(I13
I25
tp7000
g3327
s(I11
I25
tp7001
g5155
s(I28
I10
tp7002
g2383
ssg1324
(dp7003
(I17
I21
tp7004
g5576
s(I17
I19
tp7005
(dp7006
s(I2
I4
tp7007
(dp7008
s(I0
I4
tp7009
g6261
ssg1326
(dp7010
(I26
I7
tp7011
(dp7012
s(I9
I24
tp7013
g5350
s(I9
I22
tp7014
(dp7015
s(I24
I7
tp7016
(dp7017
ssg1328
(dp7018
(I14
I28
tp7019
g6714
s(I31
I11
tp7020
g4949
s(I31
I13
tp7021
(dp7022
s(I16
I28
tp7023
g6119
ssg1330
(dp7024
(I14
I28
tp7025
g6717
s(I12
I28
tp7026
g6271
s(I29
I13
tp7027
(dp7028
s(I29
I11
tp7029
g2406
ssg1332
(dp7030
(I18
I18
tp7031
g5601
s(I1
I3
tp7032
g5189
s(I3
I3
tp7033
g5744
s(I18
I20
tp7034
g4486
ssg1334
(dp7035
(I27
I4
tp7036
(dp7037
s(I10
I21
tp7038
(dp7039
s(I10
I19
tp7040
g2937
s(I25
I4
tp7041
g3318
ssg1336
(dp7042
(I16
I14
tp7043
(dp7044
s(I16
I16
tp7045
(dp7046
s(I1
I31
tp7047
g4580
ssg1338
(dp7048
(I4
I26
tp7049
g4653
s(I19
I9
tp7050
(dp7051
s(I19
I11
tp7052
(dp7053
s(I2
I26
tp7054
g5721
ssg1340
(dp7055
(I11
I24
tp7056
(dp7057
s(I11
I26
tp7058
g2969
s(I28
I9
tp7059
g5770
s(I26
I9
tp7060
(dp7061
ssg1342
(dp7062
(I0
I30
tp7063
g4544
s(I2
I30
tp7064
g3344
s(I17
I13
tp7065
g2451
s(I17
I15
tp7066
(dp7067
ssg1344
(dp7068
(I20
I12
tp7069
(dp7070
s(I5
I29
tp7071
g3411
s(I20
I14
tp7072
g2472
s(I3
I29
tp7073
(dp7074
ssg1346
(dp7075
(I29
I18
tp7076
g5736
s(I27
I18
tp7077
(dp7078
s(I12
I1
tp7079
g4210
s(I12
I3
tp7080
g5361
ssg1348
(dp7081
(I1
I29
tp7082
g5685
s(I18
I14
tp7083
(dp7084
s(I18
I12
tp7085
(dp7086
s(I3
I29
tp7087
(dp7088
ssg1350
(dp7089
(I21
I1
tp7090
(dp7091
s(I6
I16
tp7092
g4699
s(I4
I16
tp7093
g6353
ssg1352
(dp7094
(I30
I19
tp7095
g5813
s(I13
I4
tp7096
g4241
s(I13
I2
tp7097
g5394
s(I28
I19
tp7098
g5717
ssg1354
(dp7099
(I19
I15
tp7100
g3763
s(I2
I0
tp7101
(dp7102
s(I19
I17
tp7103
g4988
s(I4
I0
tp7104
(dp7105
ssg1356
(dp7106
(I22
I14
tp7107
(dp7108
s(I5
I31
tp7109
g2086
s(I7
I31
tp7110
(dp7111
s(I22
I16
tp7112
g6663
ssg1358
(dp7113
(I31
I8
tp7114
(dp7115
s(I14
I25
tp7116
(dp7117
s(I14
I23
tp7118
g5358
s(I29
I8
tp7119
(dp7120
ssg1360
(dp7121
(I20
I5
tp7122
(dp7123
s(I18
I5
tp7124
g2816
s(I3
I20
tp7125
(dp7126
s(I3
I22
tp7127
g3082
ssg1362
(dp7128
(I16
I21
tp7129
(dp7130
s(I18
I21
tp7131
(dp7132
s(I1
I6
tp7133
g4293
s(I1
I4
tp7134
g5434
ssg1364
(dp7135
(I8
I30
tp7136
(dp7137
s(I23
I13
tp7138
(dp7139
s(I23
I15
tp7140
(dp7141
s(I6
I30
tp7142
(dp7143
ssg1366
(dp7144
(I15
I28
tp7145
(dp7146
s(I15
I30
tp7147
g2230
s(I30
I13
tp7148
(dp7149
ssg1368
(dp7150
(I4
I21
tp7151
(dp7152
s(I21
I6
tp7153
g2193
s(I4
I23
tp7154
(dp7155
s(I19
I6
tp7156
g3457
ssg1370
(dp7157
(I17
I18
tp7158
g6411
s(I19
I18
tp7159
g2773
s(I2
I3
tp7160
g5461
s(I2
I1
tp7161
g6545
ssg1372
(dp7162
(I17
I14
tp7163
g5827
s(I15
I14
tp7164
(dp7165
s(I0
I29
tp7166
(dp7167
s(I0
I31
tp7168
(dp7169
ssg1374
(dp7170
(I5
I22
tp7171
(dp7172
s(I20
I7
tp7173
g2163
s(I22
I7
tp7174
g2844
s(I5
I24
tp7175
g2397
ssg1376
(dp7176
(I18
I15
tp7177
g4757
s(I1
I30
tp7178
(dp7179
s(I16
I15
tp7180
g5798
ssg1378
(dp7181
(I6
I3
tp7182
(dp7183
s(I23
I20
tp7184
g3508
s(I21
I20
tp7185
g5301
s(I6
I5
tp7186
g5496
ssg1380
(dp7187
(I19
I12
tp7188
g6884
s(I2
I29
tp7189
(dp7190
s(I2
I27
tp7191
g2322
s(I17
I12
tp7192
g6891
ssg1382
(dp7193
(I24
I17
tp7194
(dp7195
s(I22
I17
tp7196
g3484
s(I7
I0
tp7197
g5524
s(I7
I2
tp7198
g6598
ssg1384
(dp7199
(I9
I10
tp7200
g5886
s(I24
I25
tp7201
g5102
s(I24
I27
tp7202
g6192
s(I7
I10
tp7203
(dp7204
ssg1386
(dp7205
(I10
I23
tp7206
(dp7207
s(I27
I8
tp7208
(dp7209
s(I12
I23
tp7210
(dp7211
s(I27
I6
tp7212
g2672
ssg1388
(dp7213
(I25
I26
tp7214
g6219
s(I8
I11
tp7215
g5870
s(I10
I11
tp7216
(dp7217
s(I25
I28
tp7218
(dp7219
ssg1390
(dp7220
(I8
I30
tp7221
(dp7222
s(I23
I13
tp7223
(dp7224
s(I25
I13
tp7225
g3621
s(I8
I28
tp7226
(dp7227
ssg1392
(dp7228
(I30
I15
tp7229
g6830
s(I30
I17
tp7230
g6878
s(I15
I0
tp7231
g4877
s(I13
I0
tp7232
g6468
ssg1394
(dp7233
(I11
I16
tp7234
g6477
s(I28
I1
tp7235
g2704
s(I13
I16
tp7236
g4887
ssg1396
(dp7237
(I11
I0
tp7238
(dp7239
s(I26
I15
tp7240
g5727
s(I9
I0
tp7241
g2205
s(I26
I17
tp7242
g6251
ssg1398
(dp7243
(I26
I8
tp7244
g4900
s(I24
I8
tp7245
g6494
s(I9
I25
tp7246
(dp7247
s(I9
I23
tp7248
g5093
ssg1400
(dp7249
(I31
I20
tp7250
g6903
s(I31
I22
tp7251
(dp7252
s(I16
I5
tp7253
(dp7254
s(I14
I5
tp7255
g4845
ssg1402
(dp7256
(I12
I21
tp7257
(dp7258
s(I29
I6
tp7259
(dp7260
s(I29
I4
tp7261
g2728
s(I14
I21
tp7262
g6451
ssg1404
(dp7263
(I12
I13
tp7264
g4858
s(I10
I13
tp7265
(dp7266
s(I27
I28
tp7267
g6281
s(I27
I30
tp7268
(dp7269
ssg1406
(dp7270
(I27
I15
tp7271
(dp7272
s(I10
I30
tp7273
(dp7274
s(I25
I15
tp7275
g2289
ssg1408
(dp7276
(I16
I5
tp7277
(dp7278
s(I1
I22
tp7279
g5949
s(I16
I7
tp7280
g2742
ssg1410
(dp7281
(I23
I19
tp7282
g2494
s(I25
I19
tp7283
g4870
s(I8
I2
tp7284
g4502
s(I8
I4
tp7285
g5619
ssg1412
(dp7286
(I13
I14
tp7287
g5977
s(I28
I29
tp7288
g5203
s(I28
I31
tp7289
g6304
s(I11
I14
tp7290
g6973
ssg1414
(dp7291
(I11
I31
tp7292
(dp7293
s(I26
I14
tp7294
(dp7295
s(I28
I14
tp7296
(dp7297
s(I11
I29
tp7298
g7269
ssg1416
(dp7299
(I2
I23
tp7300
g4895
s(I17
I8
tp7301
g4724
s(I17
I6
tp7302
g2782
s(I0
I23
tp7303
g5921
ssg1418
(dp7304
(I26
I18
tp7305
(dp7306
s(I9
I3
tp7307
g4507
s(I9
I1
tp7308
g5627
s(I24
I18
tp7309
g4836
ssg1420
(dp7310
(I29
I30
tp7311
g6322
s(I12
I15
tp7312
g5942
s(I14
I15
tp7313
(dp7314
ssg1422
(dp7315
(I29
I9
tp7316
g3728
s(I12
I26
tp7317
(dp7318
s(I27
I9
tp7319
g5492
s(I12
I24
tp7320
(dp7321
ssg1424
(dp7322
(I18
I3
tp7323
g4113
s(I18
I5
tp7324
g2814
s(I3
I20
tp7325
(dp7326
s(I1
I20
tp7327
g7008
ssg1426
(dp7328
(I21
I10
tp7329
(dp7330
s(I6
I25
tp7331
g4432
s(I4
I25
tp7332
(dp7333
s(I21
I8
tp7334
g2826
ssg1428
(dp7335
(I30
I12
tp7336
g3691
s(I28
I12
tp7337
g6588
s(I13
I29
tp7338
(dp7339
s(I13
I27
tp7340
(dp7341
ssg1430
(dp7342
(I19
I24
tp7343
g6357
s(I19
I26
tp7344
(dp7345
s(I4
I9
tp7346
(dp7347
s(I2
I9
tp7348
(dp7349
ssg1432
(dp7350
(I5
I22
tp7351
(dp7352
s(I7
I22
tp7353
g2462
s(I22
I7
tp7354
g2850
s(I22
I5
tp7355
g4148
ssg1434
(dp7356
(I14
I4
tp7357
(dp7358
s(I14
I2
tp7359
g4556
s(I31
I19
tp7360
g6103
s(I29
I19
tp7361
(dp7362
ssg1436
(dp7363
(I20
I17
tp7364
g5278
s(I3
I2
tp7365
g2343
s(I5
I2
tp7366
g6044
s(I20
I19
tp7367
g6381
ssg1438
(dp7368
(I20
I10
tp7369
g5018
s(I3
I25
tp7370
g7345
s(I3
I27
tp7371
(dp7372
s(I18
I10
tp7373
g2483
ssg1440
(dp7374
(I23
I8
tp7375
g6951
s(I23
I6
tp7376
g2864
s(I6
I23
tp7377
g2424
s(I8
I23
tp7378
(dp7379
ssg1442
(dp7380
(I15
I27
tp7381
(dp7382
s(I30
I10
tp7383
(dp7384
s(I15
I25
tp7385
g6732
ssg1444
(dp7386
(I6
I3
tp7387
(dp7388
s(I21
I20
tp7389
g5306
s(I21
I18
tp7390
g6408
s(I4
I3
tp7391
g6028
ssg1446
(dp7392
(I21
I13
tp7393
g3819
s(I4
I28
tp7394
(dp7395
s(I4
I30
tp7396
(dp7397
s(I19
I13
tp7398
g2438
ssg1448
(dp7399
(I0
I22
tp7400
(dp7401
s(I15
I5
tp7402
g5702
s(I17
I5
tp7403
g7130
s(I0
I20
tp7404
(dp7405
ssg1450
(dp7406
(I22
I23
tp7407
g4738
s(I22
I25
tp7408
g6421
s(I7
I8
tp7409
(dp7410
s(I5
I8
tp7411
g4339
ssg1452
(dp7412
(I5
I17
tp7413
(dp7414
s(I5
I15
tp7415
g4030
s(I22
I0
tp7416
g5055
s(I20
I0
tp7417
g6670
ssg1454
(dp7418
(I18
I16
tp7419
g6674
s(I3
I1
tp7420
g4629
s(I20
I16
tp7421
(dp7422
ssg1456
(dp7423
(I18
I0
tp7424
(dp7425
s(I16
I0
tp7426
g2415
s(I1
I17
tp7427
(dp7428
s(I1
I15
tp7429
g2683
ssg1458
(dp7430
(I23
I28
tp7431
g6434
s(I23
I30
tp7432
(dp7433
s(I8
I13
tp7434
g6929
s(I6
I13
tp7435
(dp7436
ssg1460
(dp7437
(I21
I15
tp7438
g2503
s(I23
I15
tp7439
(dp7440
s(I6
I30
tp7441
(dp7442
ssg1462
(dp7443
(I2
I24
tp7444
g6791
s(I2
I22
tp7445
(dp7446
s(I19
I7
tp7447
g6640
s(I17
I7
tp7448
g6088
ssg1464
(dp7449
(I24
I14
tp7450
g2255
s(I7
I29
tp7451
g7433
s(I7
I31
tp7452
(dp7453
s(I22
I14
tp7454
(dp7455
ssg1466
(dp7456
(I24
I2
tp7457
g2991
s(I24
I0
tp7458
(dp7459
s(I9
I17
tp7460
g3884
s(I7
I17
tp7461
g6895
ssg1468
(dp7462
(I25
I29
tp7463
g5378
s(I25
I27
tp7464
(dp7465
s(I10
I12
tp7466
g3866
s(I8
I12
tp7467
g2514
ssg1470
(dp7468
(I30
I26
tp7469
g6072
s(I15
I11
tp7470
g6227
s(I30
I28
tp7471
(dp7472
s(I13
I11
tp7473
g3941
ssg1472
(dp7474
(I26
I26
tp7475
g5406
s(I9
I11
tp7476
(dp7477
s(I11
I11
tp7478
(dp7479
s(I26
I28
tp7480
g4256
ssg1474
(dp7481
(I31
I19
tp7482
g6105
s(I14
I2
tp7483
g4561
s(I16
I2
tp7484
g3743
s(I31
I17
tp7485
g5014
ssg1476
(dp7486
(I12
I2
tp7487
(dp7488
s(I27
I17
tp7489
g4283
s(I27
I19
tp7490
g5428
s(I10
I2
tp7491
(dp7492
ssg1478
(dp7493
(I1
I13
tp7494
g3992
s(I16
I28
tp7495
g6123
s(I16
I30
tp7496
g7167
ssg1480
(dp7497
(I8
I9
tp7498
g4776
s(I25
I26
tp7499
g6224
s(I8
I11
tp7500
g5872
s(I23
I26
tp7501
g2183
ssg1482
(dp7502
(I28
I22
tp7503
g6532
s(I28
I20
tp7504
g5454
s(I13
I5
tp7505
g7258
s(I11
I5
tp7506
g6176
ssg1484
(dp7507
(I11
I24
tp7508
(dp7509
s(I26
I7
tp7510
(dp7511
s(I28
I7
tp7512
(dp7513
s(I11
I22
tp7514
g2237
ssg1486
(dp7515
(I2
I8
tp7516
g5211
s(I0
I8
tp7517
g6803
s(I17
I25
tp7518
g6137
s(I17
I23
tp7519
g4455
ssg1488
(dp7520
(I9
I10
tp7521
g5884
s(I24
I27
tp7522
g6190
s(I26
I27
tp7523
(dp7524
s(I9
I12
tp7525
(dp7526
ssg1490
(dp7527
(I29
I25
tp7528
g5480
s(I29
I23
tp7529
g6561
s(I14
I8
tp7530
g2594
s(I12
I8
tp7531
g2603
ssg1492
(dp7532
(I27
I0
tp7533
g6823
s(I12
I15
tp7534
g5946
s(I12
I17
tp7535
g2275
s(I29
I0
tp7536
g5228
ssg1494
(dp7537
(I3
I15
tp7538
g5171
s(I18
I30
tp7539
g6147
s(I1
I15
tp7540
g2681
ssg1496
(dp7541
(I27
I16
tp7542
(dp7543
s(I25
I16
tp7544
g2614
s(I10
I1
tp7545
g5896
ssg1498
(dp7546
(I13
I22
tp7547
(dp7548
s(I28
I5
tp7549
(dp7550
s(I13
I20
tp7551
g2311
s(I30
I5
tp7552
g3386
ssg1500
(dp7553
(I19
I31
tp7554
g5518
s(I2
I14
tp7555
(dp7556
s(I4
I14
tp7557
g4003
s(I19
I29
tp7558
g4391
ssg1502
(dp7559
(I28
I29
tp7560
g5205
s(I26
I29
tp7561
(dp7562
s(I11
I12
tp7563
g5916
s(I11
I14
tp7564
g6975
ssg1504
(dp7565
(I14
I11
tp7566
g5935
s(I14
I9
tp7567
g6993
s(I29
I26
tp7568
(dp7569
s(I31
I26
tp7570
g7384
ssg1506
(dp7571
(I20
I24
tp7572
g5543
s(I5
I9
tp7573
g7333
s(I3
I9
tp7574
(dp7575
s(I20
I26
tp7576
g6614
ssg1508
(dp7577
(I12
I13
tp7578
g4852
s(I29
I30
tp7579
g6326
s(I12
I15
tp7580
g5944
s(I27
I30
tp7581
g7297
ssg1510
(dp7582
(I15
I4
tp7583
g2300
s(I30
I19
tp7584
g5809
s(I15
I2
tp7585
g5964
ssg1512
(dp7586
(I6
I12
tp7587
g4053
s(I4
I12
tp7588
g2692
s(I21
I29
tp7589
g5560
s(I21
I27
tp7590
g6632
ssg1514
(dp7591
(I13
I14
tp7592
g5973
s(I28
I31
tp7593
g6302
s(I30
I31
tp7594
g5244
s(I13
I16
tp7595
g4883
ssg1516
(dp7596
(I15
I28
tp7597
(dp7598
s(I0
I11
tp7599
g4908
s(I0
I13
tp7600
g5997
s(I17
I28
tp7601
g5315
ssg1518
(dp7602
(I7
I3
tp7603
g2066
s(I22
I18
tp7604
g5585
s(I22
I20
tp7605
(dp7606
s(I5
I3
tp7607
(dp7608
ssg1520
(dp7609
(I20
I9
tp7610
(dp7611
s(I22
I9
tp7612
g4784
s(I5
I26
tp7613
(dp7614
s(I5
I24
tp7615
g2395
ssg1522
(dp7616
(I3
I8
tp7617
g6004
s(I3
I10
tp7618
g7051
s(I20
I25
tp7619
g2091
s(I18
I25
tp7620
g6427
ssg1524
(dp7621
(I1
I10
tp7622
g4926
s(I16
I25
tp7623
(dp7624
s(I1
I8
tp7625
g6019
s(I18
I25
tp7626
g6429
ssg1526
(dp7627
(I23
I27
tp7628
g5609
s(I6
I10
tp7629
(dp7630
s(I8
I10
tp7631
(dp7632
s(I23
I25
tp7633
g4495
ssg1528
(dp7634
(I21
I6
tp7635
g2187
s(I23
I6
tp7636
g2866
s(I6
I23
tp7637
g2420
s(I6
I21
tp7638
g3752
ssg1530
(dp7639
(I21
I18
tp7640
g6405
s(I19
I18
tp7641
g2768
s(I4
I1
tp7642
g4940
s(I4
I3
tp7643
g6024
ssg1532
(dp7644
(I2
I15
tp7645
g6040
s(I2
I13
tp7646
g7084
s(I17
I30
tp7647
g4135
s(I19
I30
tp7648
(dp7649
ssg1534
(dp7650
(I22
I7
tp7651
g2846
s(I7
I22
tp7652
g2460
s(I7
I24
tp7653
g6654
s(I24
I7
tp7654
(dp7655
ssg1536
(dp7656
(I22
I19
tp7657
g2158
s(I5
I4
tp7658
g4959
s(I5
I2
tp7659
g6049
s(I20
I19
tp7660
g6385
ssg1538
(dp7661
(I24
I9
tp7662
g3283
s(I9
I24
tp7663
g5347
s(I7
I24
tp7664
g6652
s(I24
I7
tp7665
(dp7666
ssg1540
(dp7667
(I23
I24
tp7668
(dp7669
s(I6
I9
tp7670
g6068
s(I6
I7
tp7671
g4367
s(I21
I24
tp7672
g4706
ssg1542
(dp7673
(I25
I6
tp7674
(dp7675
s(I10
I21
tp7676
(dp7677
s(I8
I21
tp7678
(dp7679
s(I25
I4
tp7680
g3314
ssg1544
(dp7681
(I7
I12
tp7682
g6096
s(I7
I14
tp7683
g7139
s(I24
I29
tp7684
g7224
s(I22
I29
tp7685
(dp7686
ssg1546
(dp7687
(I9
I18
tp7688
g6981
s(I11
I18
tp7689
g7492
s(I26
I3
tp7690
g3355
s(I26
I1
tp7691
g4618
ssg1548
(dp7692
(I14
I11
tp7693
g5933
s(I31
I28
tp7694
g4095
s(I16
I11
tp7695
g3428
s(I31
I26
tp7696
g7382
ssg1550
(dp7697
(I27
I12
tp7698
g4640
s(I27
I10
tp7699
g3378
s(I10
I27
tp7700
g7479
s(I12
I27
tp7701
g6503
ssg1552
(dp7702
(I16
I19
tp7703
g6393
s(I16
I21
tp7704
g7405
s(I1
I4
tp7705
g5439
ssg1554
(dp7706
(I8
I16
tp7707
(dp7708
s(I25
I1
tp7709
g4300
s(I8
I18
tp7710
g2554
s(I23
I1
tp7711
g7195
ssg1556
(dp7712
(I15
I20
tp7713
g4228
s(I30
I3
tp7714
g7358
s(I13
I20
tp7715
g2307
s(I30
I5
tp7716
g3383
ssg1558
(dp7717
(I28
I13
tp7718
g3399
s(I13
I28
tp7719
g5449
s(I11
I28
tp7720
g4246
s(I28
I11
tp7721
g6842
ssg1560
(dp7722
(I0
I1
tp7723
(dp7724
s(I17
I18
tp7725
g6415
s(I17
I16
tp7726
g7428
s(I2
I1
tp7727
g6543
ssg1562
(dp7728
(I9
I13
tp7729
g5064
s(I9
I11
tp7730
(dp7731
s(I26
I28
tp7732
g4258
s(I24
I28
tp7733
g2910
ssg1564
(dp7734
(I16
I17
tp7735
g5298
s(I14
I17
tp7736
g4201
s(I31
I0
tp7737
g3408
s(I31
I2
tp7738
g4670
ssg1566
(dp7739
(I29
I18
tp7740
g5733
s(I14
I1
tp7741
g2262
s(I12
I1
tp7742
g4204
s(I29
I16
tp7743
g6807
ssg1568
(dp7744
(I18
I23
tp7745
g7446
s(I18
I21
tp7746
(dp7747
s(I1
I6
tp7748
g4291
s(I3
I6
tp7749
g4913
ssg1570
(dp7750
(I27
I27
tp7751
(dp7752
s(I25
I27
tp7753
(dp7754
s(I10
I12
tp7755
g3860
s(I10
I10
tp7756
g5075
ssg1572
(dp7757
(I1
I26
tp7758
g6517
s(I16
I9
tp7759
g2102
s(I16
I11
tp7760
g3432
ssg1574
(dp7761
(I2
I23
tp7762
g4890
s(I19
I8
tp7763
g4712
s(I4
I23
tp7764
(dp7765
s(I19
I6
tp7766
g3454
ssg1576
(dp7767
(I28
I18
tp7768
(dp7769
s(I11
I1
tp7770
g3878
s(I11
I3
tp7771
g5087
s(I26
I18
tp7772
(dp7773
ssg1578
(dp7774
(I17
I10
tp7775
g3462
s(I0
I27
tp7776
g6488
s(I2
I27
tp7777
g2316
s(I17
I12
tp7778
g6889
ssg1580
(dp7779
(I14
I12
tp7780
g5111
s(I31
I29
tp7781
g7149
s(I29
I29
tp7782
g3073
s(I14
I14
tp7783
g3906
ssg1582
(dp7784
(I3
I16
tp7785
g7105
s(I20
I1
tp7786
g3492
s(I5
I16
tp7787
g5537
ssg1584
(dp7788
(I29
I21
tp7789
g7550
s(I12
I4
tp7790
g5114
s(I12
I6
tp7791
g6205
s(I27
I21
tp7792
g6507
ssg1586
(dp7793
(I30
I24
tp7794
g7115
s(I15
I7
tp7795
g6777
s(I15
I9
tp7796
g5138
ssg1588
(dp7797
(I4
I21
tp7798
(dp7799
s(I21
I6
tp7800
g2191
s(I21
I4
tp7801
g3515
s(I6
I21
tp7802
g3750
ssg1590
(dp7803
(I13
I9
tp7804
g5149
s(I13
I7
tp7805
g6240
s(I30
I24
tp7806
g7120
s(I28
I24
tp7807
g3046
ssg1592
(dp7808
(I15
I19
tp7809
g3255
s(I17
I19
tp7810
(dp7811
s(I0
I2
tp7812
g5168
s(I0
I4
tp7813
g6257
ssg1594
(dp7814
(I22
I11
tp7815
g3531
s(I22
I9
tp7816
g4786
s(I5
I26
tp7817
(dp7818
s(I7
I26
tp7819
g7630
ssg1596
(dp7820
(I31
I7
tp7821
g5527
s(I29
I7
tp7822
g4964
s(I14
I24
tp7823
g4514
s(I14
I22
tp7824
(dp7825
ssg1598
(dp7826
(I3
I15
tp7827
g5177
s(I18
I30
tp7828
g6152
s(I20
I30
tp7829
g4422
s(I3
I13
tp7830
g3976
ssg1600
(dp7831
(I18
I18
tp7832
g5597
s(I1
I3
tp7833
g5186
s(I1
I1
tp7834
g6285
s(I16
I18
tp7835
(dp7836
ssg1602
(dp7837
(I6
I3
tp7838
(dp7839
s(I23
I20
tp7840
g3504
s(I8
I3
tp7841
(dp7842
s(I23
I18
tp7843
g6917
ssg1604
(dp7844
(I15
I21
tp7845
g7252
s(I15
I23
tp7846
(dp7847
s(I30
I6
tp7848
g5505
ssg1606
(dp7849
(I4
I10
tp7850
g6292
s(I21
I25
tp7851
g7611
s(I19
I25
tp7852
(dp7853
s(I4
I8
tp7854
g5195
ssg1608
(dp7855
(I2
I8
tp7856
g5213
s(I19
I25
tp7857
(dp7858
s(I17
I25
tp7859
g6139
s(I2
I10
tp7860
g4021
ssg1610
(dp7861
(I17
I9
tp7862
g7624
s(I0
I24
tp7863
(dp7864
s(I0
I26
tp7865
(dp7866
s(I15
I9
tp7867
g5134
ssg1612
(dp7868
(I22
I28
tp7869
g4471
s(I20
I28
tp7870
g3145
s(I5
I13
tp7871
g5220
s(I5
I11
tp7872
g6314
ssg1614
(dp7873
(I24
I14
tp7874
g2259
s(I24
I16
tp7875
g3592
s(I7
I31
tp7876
(dp7877
s(I9
I31
tp7878
(dp7879
ssg1616
(dp7880
(I23
I19
tp7881
g2492
s(I6
I4
tp7882
(dp7883
s(I6
I2
tp7884
g5237
s(I21
I19
tp7885
(dp7886
ssg1618
(dp7887
(I8
I30
tp7888
(dp7889
s(I10
I30
tp7890
(dp7891
s(I25
I13
tp7892
g3625
s(I25
I15
tp7893
g2293
ssg1620
(dp7894
(I7
I11
tp7895
g5265
s(I22
I26
tp7896
(dp7897
s(I24
I26
tp7898
(dp7899
s(I7
I9
tp7900
g4092
ssg1622
(dp7901
(I9
I29
tp7902
g3228
s(I26
I14
tp7903
(dp7904
s(I26
I12
tp7905
g2327
s(I11
I29
tp7906
g7266
ssg1624
(dp7907
(I9
I5
tp7908
g7679
s(I7
I5
tp7909
g6365
s(I24
I20
tp7910
g5928
s(I24
I22
tp7911
g6987
ssg1626
(dp7912
(I10
I16
tp7913
g7239
s(I27
I1
tp7914
g2352
s(I12
I16
tp7915
g5677
ssg1628
(dp7916
(I10
I0
tp7917
(dp7918
s(I8
I0
tp7919
g3221
s(I25
I17
tp7920
g5960
s(I25
I15
tp7921
g2291
ssg1630
(dp7922
(I8
I25
tp7923
g2880
s(I25
I8
tp7924
g5693
s(I23
I8
tp7925
g6949
s(I8
I23
tp7926
(dp7927
ssg1632
(dp7928
(I30
I14
tp7929
g2365
s(I13
I31
tp7930
g7314
s(I15
I31
tp7931
g5650
s(I30
I16
tp7932
g2433
ssg1634
(dp7933
(I28
I10
tp7934
g2385
s(I28
I12
tp7935
g6591
s(I11
I27
tp7936
g6248
s(I13
I27
tp7937
(dp7938
ssg1636
(dp7939
(I26
I24
tp7940
g6480
s(I11
I7
tp7941
g7207
s(I26
I22
tp7942
g5988
s(I9
I7
tp7943
g6706
ssg1638
(dp7944
(I24
I5
tp7945
(dp7946
s(I26
I5
tp7947
(dp7948
s(I9
I22
tp7949
(dp7950
s(I9
I20
tp7951
g2895
ssg1640
(dp7952
(I16
I30
tp7953
g7165
s(I31
I13
tp7954
(dp7955
s(I31
I15
tp7956
g2390
s(I14
I30
tp7957
g5635
ssg1642
(dp7958
(I29
I9
tp7959
g3732
s(I12
I26
tp7960
(dp7961
s(I14
I26
tp7962
g3238
s(I29
I11
tp7963
g2408
ssg1644
(dp7964
(I18
I16
tp7965
g6678
s(I3
I1
tp7966
g4634
s(I1
I1
tp7967
g6289
s(I18
I18
tp7968
g5603
ssg1646
(dp7969
(I25
I2
tp7970
g7306
s(I27
I2
tp7971
g7773
s(I10
I19
tp7972
g2931
s(I10
I17
tp7973
g4218
ssg1648
(dp7974
(I16
I0
tp7975
g2413
s(I1
I17
tp7976
g7724
s(I16
I2
tp7977
g3737
ssg1650
(dp7978
(I4
I28
tp7979
(dp7980
s(I19
I11
tp7981
(dp7982
s(I2
I28
tp7983
g4608
s(I19
I13
tp7984
g2442
ssg1652
(dp7985
(I26
I11
tp7986
g7752
s(I11
I26
tp7987
g2971
s(I11
I28
tp7988
g4244
s(I28
I11
tp7989
g6844
ssg1654
(dp7990
(I17
I13
tp7991
g2453
s(I17
I11
tp7992
g6649
s(I2
I28
tp7993
g4610
s(I0
I28
tp7994
g3279
ssg1656
(dp7995
(I3
I31
tp7996
g3369
s(I5
I31
tp7997
g2084
s(I20
I14
tp7998
g2476
s(I20
I16
tp7999
(dp8000
ssg1658
(dp8001
(I12
I29
tp8002
g3002
s(I29
I12
tp8003
g5790
s(I27
I12
tp8004
g4637
s(I12
I27
tp8005
g6501
ssg1660
(dp8006
(I18
I10
tp8007
g2485
s(I1
I27
tp8008
(dp8009
s(I3
I27
tp8010
(dp8011
s(I18
I12
tp8012
(dp8013
ssg1662
(dp8014
(I21
I13
tp8015
g3817
s(I21
I15
tp8016
g2499
s(I4
I30
tp8017
(dp8018
s(I6
I30
tp8019
(dp8020
ssg1664
(dp8021
(I28
I17
tp8022
g4600
s(I30
I17
tp8023
g6875
s(I13
I2
tp8024
g5392
s(I13
I0
tp8025
g6466
ssg1666
(dp8026
(I4
I2
tp8027
(dp8028
s(I19
I17
tp8029
g4990
s(I19
I19
tp8030
g6082
s(I2
I2
tp8031
(dp8032
ssg1668
(dp8033
(I22
I12
tp8034
g2522
s(I7
I29
tp8035
g7436
s(I5
I29
tp8036
g3416
s(I22
I14
tp8037
(dp8038
ssg1670
(dp8039
(I29
I14
tp8040
g4679
s(I31
I14
tp8041
g6850
s(I14
I31
tp8042
g2216
s(I14
I29
tp8043
g3551
ssg1672
(dp8044
(I20
I20
tp8045
g6108
s(I5
I5
tp8046
g7799
s(I20
I22
tp8047
g7152
s(I3
I5
tp8048
g6814
ssg1674
(dp8049
(I3
I24
tp8050
g4356
s(I18
I7
tp8051
(dp8052
s(I20
I7
tp8053
g2161
s(I3
I22
tp8054
g3076
ssg1676
(dp8055
(I8
I24
tp8056
g6172
s(I23
I7
tp8057
g6157
s(I6
I24
tp8058
g7410
s(I23
I9
tp8059
g2538
ssg1678
(dp8060
(I15
I30
tp8061
g2232
s(I30
I15
tp8062
g6826
ssg1680
(dp8063
(I19
I0
tp8064
g7422
s(I4
I15
tp8065
g8000
s(I4
I17
tp8066
g3102
s(I21
I0
tp8067
g5866
ssg1682
(dp8068
(I19
I16
tp8069
(dp8070
s(I17
I16
tp8071
g7425
s(I2
I1
tp8072
g6540
ssg1684
(dp8073
(I0
I17
tp8074
g2246
s(I17
I0
tp8075
(dp8076
s(I15
I0
tp8077
g4875
s(I0
I15
tp8078
g7046
ssg1686
(dp8079
(I5
I22
tp8080
(dp8081
s(I20
I5
tp8082
(dp8083
s(I5
I20
tp8084
g3138
s(I22
I5
tp8085
g4146
ssg1688
(dp8086
(I16
I13
tp8087
g4687
s(I18
I13
tp8088
g5849
s(I1
I30
tp8089
(dp8090
s(I1
I28
tp8091
g2280
ssg1690
(dp8092
(I6
I27
tp8093
g3162
s(I6
I25
tp8094
g4434
s(I21
I10
tp8095
(dp8096
s(I23
I10
tp8097
g7897
ssg1692
(dp8098
(I17
I10
tp8099
g3464
s(I19
I10
tp8100
g5821
s(I2
I27
tp8101
g2318
s(I2
I25
tp8102
g3653
ssg1694
(dp8103
(I7
I4
tp8104
g3118
s(I22
I19
tp8105
g2152
s(I24
I19
tp8106
(dp8107
s(I7
I2
tp8108
g6594
ssg1696
(dp8109
(I7
I12
tp8110
g6099
s(I24
I27
tp8111
g6194
s(I24
I29
tp8112
g7227
s(I9
I12
tp8113
(dp8114
ssg1698
(dp8115
(I8
I9
tp8116
g4780
s(I25
I26
tp8117
g6221
s(I25
I24
tp8118
g7247
s(I10
I9
tp8119
g2873
ssg1700
(dp8120
(I8
I30
tp8121
(dp8122
s(I23
I15
tp8123
(dp8124
s(I25
I15
tp8125
g2295
ssg1702
(dp8126
(I13
I6
tp8127
g2964
s(I15
I6
tp8128
g3636
s(I30
I23
tp8129
g7825
s(I30
I21
tp8130
(dp8131
ssg1704
(dp8132
(I28
I1
tp8133
g2699
s(I11
I18
tp8134
g7488
s(I13
I18
tp8135
g3639
s(I28
I3
tp8136
g4006
ssg1706
(dp8137
(I26
I31
tp8138
g7274
s(I26
I29
tp8139
(dp8140
s(I9
I14
tp8141
g7891
s(I11
I14
tp8142
g6971
ssg1708
(dp8143
(I9
I29
tp8144
g3226
s(I26
I14
tp8145
(dp8146
s(I24
I14
tp8147
g2253
s(I9
I31
tp8148
(dp8149
ssg1710
(dp8150
(I31
I24
tp8151
g6371
s(I31
I22
tp8152
g7847
s(I14
I7
tp8153
g3599
s(I16
I7
tp8154
g2746
ssg1712
(dp8155
(I14
I19
tp8156
g2919
s(I29
I4
tp8157
g2730
s(I29
I2
tp8158
g4039
s(I12
I19
tp8159
g3610
ssg1714
(dp8160
(I10
I15
tp8161
g6957
s(I12
I15
tp8162
g5940
s(I27
I30
tp8163
g7293
ssg1716
(dp8164
(I25
I13
tp8165
g3623
s(I10
I30
tp8166
g8140
s(I10
I28
tp8167
(dp8168
s(I27
I13
tp8169
g7562
ssg1718
(dp8170
(I16
I25
tp8171
g7864
s(I1
I8
tp8172
g6017
s(I16
I23
tp8173
(dp8174
ssg1720
(dp8175
(I8
I6
tp8176
g6693
s(I23
I21
tp8177
g6684
s(I25
I21
tp8178
g7946
s(I8
I4
tp8179
g5621
ssg1722
(dp8180
(I11
I8
tp8181
g3577
s(I28
I23
tp8182
g3338
s(I28
I25
tp8183
g7321
s(I13
I8
tp8184
(dp8185
ssg1724
(dp8186
(I11
I15
tp8187
g2563
s(I28
I0
tp8188
g6031
s(I11
I17
tp8189
(dp8190
s(I26
I0
tp8191
g7543
ssg1726
(dp8192
(I17
I6
tp8193
g2776
s(I2
I21
tp8194
g5981
s(I0
I21
tp8195
g4829
s(I17
I4
tp8196
g4079
ssg1728
(dp8197
(I26
I16
tp8198
(dp8199
s(I24
I16
tp8200
g3588
s(I9
I1
tp8201
g5629
ssg1730
(dp8202
(I12
I13
tp8203
g4856
s(I29
I30
tp8204
g6324
s(I29
I28
tp8205
g7339
s(I14
I13
tp8206
(dp8207
ssg1732
(dp8208
(I12
I26
tp8209
(dp8210
s(I12
I28
tp8211
g6274
s(I27
I11
tp8212
g6573
s(I29
I11
tp8213
g2410
ssg1734
(dp8214
(I1
I18
tp8215
g3618
s(I3
I18
tp8216
g8032
s(I18
I3
tp8217
g4115
s(I18
I1
tp8218
g5290
ssg1736
(dp8219
(I10
I8
tp8220
g6163
s(I27
I23
tp8221
g7511
s(I10
I6
tp8222
g5641
s(I25
I23
tp8223
g7012
ssg1738
(dp8224
(I13
I25
tp8225
g3323
s(I30
I10
tp8226
g7569
s(I28
I10
tp8227
g2379
s(I13
I27
tp8228
(dp8229
ssg1740
(dp8230
(I19
I28
tp8231
(dp8232
s(I19
I26
tp8233
g7372
s(I2
I11
tp8234
g8011
s(I4
I11
tp8235
g3035
ssg1742
(dp8236
(I7
I20
tp8237
(dp8238
s(I22
I3
tp8239
g7883
s(I5
I20
tp8240
g3134
s(I22
I5
tp8241
g4142
ssg1744
(dp8242
(I29
I17
tp8243
g2336
s(I14
I2
tp8244
g4558
s(I14
I0
tp8245
g5671
s(I31
I17
tp8246
g5010
ssg1746
(dp8247
(I20
I29
tp8248
g7395
s(I5
I12
tp8249
(dp8250
s(I3
I12
tp8251
g7980
s(I20
I27
tp8252
g3421
ssg1748
(dp8253
(I18
I12
tp8254
(dp8255
s(I20
I12
tp8256
(dp8257
s(I3
I27
tp8258
g8232
s(I3
I29
tp8259
(dp8260
ssg1750
(dp8261
(I8
I17
tp8262
g5907
s(I6
I17
tp8263
(dp8264
s(I23
I0
tp8265
g4160
s(I23
I2
tp8266
g5336
ssg1752
(dp8267
(I15
I3
tp8268
(dp8269
s(I15
I5
tp8270
g5699
s(I30
I20
tp8271
g4982
ssg1754
(dp8272
(I21
I18
tp8273
g6403
s(I6
I1
tp8274
g3085
s(I4
I1
tp8275
g4935
s(I21
I16
tp8276
g7414
ssg1756
(dp8277
(I19
I15
tp8278
g3766
s(I21
I15
tp8279
g2501
s(I4
I30
tp8280
(dp8281
ssg1758
(dp8282
(I0
I22
tp8283
(dp8284
s(I0
I24
tp8285
g8174
s(I15
I7
tp8286
g6781
s(I17
I7
tp8287
g6092
ssg1760
(dp8288
(I5
I14
tp8289
g8020
s(I7
I14
tp8290
g7143
s(I22
I31
tp8291
g7442
s(I22
I29
tp8292
(dp8293
ssg1762
(dp8294
(I22
I14
tp8295
(dp8296
s(I5
I31
tp8297
g2082
s(I5
I29
tp8298
g3413
s(I20
I14
tp8299
g2474
ssg1764
(dp8300
(I20
I18
tp8301
(dp8302
s(I3
I1
tp8303
g4631
s(I3
I3
tp8304
g5742
s(I18
I18
tp8305
g5599
ssg1766
(dp8306
(I1
I21
tp8307
g2606
s(I18
I6
tp8308
g5026
s(I16
I6
tp8309
g6059
s(I1
I23
tp8310
(dp8311
ssg1768
(dp8312
(I23
I30
tp8313
g7453
s(I6
I15
tp8314
g7111
s(I8
I15
tp8315
g7877
ssg1770
(dp8316
(I6
I28
tp8317
g2113
s(I23
I13
tp8318
g7686
s(I21
I13
tp8319
g3823
s(I6
I30
tp8320
g8293
ssg1772
(dp8321
(I21
I21
tp8322
g8083
s(I4
I4
tp8323
g5762
s(I4
I6
tp8324
g6836
s(I19
I21
tp8325
g7123
ssg1774
(dp8326
(I17
I5
tp8327
g7132
s(I2
I22
tp8328
g7747
s(I2
I20
tp8329
(dp8330
s(I19
I5
tp8331
g5566
ssg1776
(dp8332
(I22
I8
tp8333
g7669
s(I24
I8
tp8334
g6496
s(I7
I23
tp8335
g5831
s(I7
I25
tp8336
g2147
ssg1778
(dp8337
(I7
I19
tp8338
g7842
s(I9
I19
tp8339
g2572
s(I24
I2
tp8340
g2995
s(I24
I4
tp8341
g4269
ssg1780
(dp8342
(I25
I3
tp8343
g3022
s(I25
I1
tp8344
g4298
s(I8
I18
tp8345
g2552
s(I10
I18
tp8346
g6211
ssg1782
(dp8347
(I13
I9
tp8348
g5145
s(I30
I26
tp8349
g6074
s(I30
I24
tp8350
g7117
s(I15
I9
tp8351
g5136
ssg1784
(dp8352
(I26
I24
tp8353
g6485
s(I11
I9
tp8354
g6739
s(I9
I9
tp8355
g2531
s(I26
I26
tp8356
g5408
ssg1786
(dp8357
(I14
I12
tp8358
g5106
s(I31
I27
tp8359
g3127
s(I31
I29
tp8360
g7146
s(I16
I12
tp8361
g7598
ssg1788
(dp8362
(I12
I4
tp8363
g5117
s(I10
I4
tp8364
g6724
s(I27
I19
tp8365
g5430
s(I27
I21
tp8366
g6511
ssg1790
(dp8367
(I16
I30
tp8368
g7169
s(I1
I15
tp8369
g2687
ssg1792
(dp8370
(I23
I28
tp8371
g6436
s(I8
I11
tp8372
g5874
s(I8
I13
tp8373
g6931
s(I25
I28
tp8374
(dp8375
ssg1794
(dp8376
(I30
I4
tp8377
g6576
s(I15
I19
tp8378
g3251
s(I30
I2
tp8379
g3094
s(I13
I19
tp8380
g6784
ssg1796
(dp8381
(I11
I7
tp8382
g7211
s(I13
I7
tp8383
g6237
s(I28
I22
tp8384
g6536
s(I28
I24
tp8385
g3042
ssg1798
(dp8386
(I17
I29
tp8387
g8090
s(I0
I14
tp8388
g2659
s(I2
I14
tp8389
(dp8390
s(I17
I31
tp8391
g7179
ssg1800
(dp8392
(I9
I10
tp8393
g5882
s(I24
I25
tp8394
g5098
s(I9
I8
tp8395
g6943
s(I26
I25
tp8396
g3272
ssg1802
(dp8397
(I29
I21
tp8398
g7548
s(I29
I23
tp8399
g6555
s(I12
I6
tp8400
g6203
s(I14
I6
tp8401
g6753
ssg1804
(dp8402
(I29
I2
tp8403
g4037
s(I27
I2
tp8404
g7769
s(I12
I17
tp8405
g2277
s(I12
I19
tp8406
g3604
ssg1806
(dp8407
(I1
I13
tp8408
g3990
s(I18
I30
tp8409
g6149
s(I18
I28
tp8410
g7190
s(I3
I13
tp8411
g3972
ssg1808
(dp8412
(I10
I15
tp8413
g6959
s(I10
I13
tp8414
g7904
s(I25
I30
tp8415
g8146
s(I27
I30
tp8416
g7295
ssg1810
(dp8417
(I30
I3
tp8418
g7362
s(I13
I20
tp8419
g2313
s(I13
I18
tp8420
g3644
s(I28
I3
tp8421
g4012
ssg1812
(dp8422
(I2
I16
tp8423
g3950
s(I19
I1
tp8424
g3178
s(I4
I16
tp8425
g6348
ssg1814
(dp8426
(I11
I16
tp8427
g6475
s(I26
I31
tp8428
g7272
s(I28
I31
tp8429
g6300
s(I11
I14
tp8430
g6969
ssg1816
(dp8431
(I31
I24
tp8432
g6369
s(I14
I9
tp8433
g6995
s(I14
I7
tp8434
g3601
s(I29
I24
tp8435
(dp8436
ssg1818
(dp8437
(I20
I26
tp8438
g6616
s(I20
I28
tp8439
g3149
s(I3
I11
tp8440
g2669
s(I5
I11
tp8441
g6318
ssg1820
(dp8442
(I27
I24
tp8443
g3979
s(I12
I7
tp8444
g2928
s(I12
I9
tp8445
g6999
s(I29
I24
tp8446
(dp8447
ssg1822
(dp8448
(I15
I12
tp8449
g7022
s(I15
I14
tp8450
g7955
s(I30
I29
tp8451
g6342
ssg1824
(dp8452
(I4
I10
tp8453
g6295
s(I21
I25
tp8454
g7614
s(I6
I10
tp8455
g7818
s(I21
I27
tp8456
g6634
ssg1826
(dp8457
(I13
I14
tp8458
g5975
s(I28
I29
tp8459
g5201
s(I13
I12
tp8460
g7028
s(I30
I29
tp8461
g6344
ssg1828
(dp8462
(I17
I30
tp8463
g4137
s(I15
I30
tp8464
g2228
s(I0
I13
tp8465
g5999
s(I0
I15
tp8466
g7044
ssg1830
(dp8467
(I5
I1
tp8468
g2717
s(I22
I18
tp8469
g5587
s(I22
I16
tp8470
g6661
s(I7
I1
tp8471
g8264
ssg1832
(dp8472
(I14
I19
tp8473
g2917
s(I14
I17
tp8474
g4198
s(I29
I2
tp8475
g4035
s(I31
I2
tp8476
g4668
ssg1834
(dp8477
(I18
I27
tp8478
g5326
s(I3
I10
tp8479
g7053
s(I3
I12
tp8480
g7982
s(I20
I27
tp8481
g3423
ssg1836
(dp8482
(I18
I31
tp8483
g2857
s(I1
I16
tp8484
g4865
s(I1
I14
tp8485
g7067
s(I16
I31
tp8486
g4121
ssg1838
(dp8487
(I23
I19
tp8488
g2490
s(I6
I4
tp8489
g8238
s(I23
I21
tp8490
g6681
s(I8
I4
tp8491
g5617
ssg1840
(dp8492
(I6
I19
tp8493
g7606
s(I23
I4
tp8494
(dp8495
s(I21
I4
tp8496
g3511
s(I6
I21
tp8497
g3746
ssg1842
(dp8498
(I4
I13
tp8499
g7070
s(I21
I28
tp8500
g2118
s(I19
I28
tp8501
g8257
s(I4
I11
tp8502
g3033
ssg1844
(dp8503
(I19
I28
tp8504
g8255
s(I2
I13
tp8505
g7086
s(I2
I11
tp8506
g8013
s(I17
I28
tp8507
g5313
ssg1846
(dp8508
(I24
I1
tp8509
g6267
s(I22
I1
tp8510
(dp8511
s(I7
I16
tp8512
g3784
s(I7
I18
tp8513
g5007
ssg1848
(dp8514
(I20
I17
tp8515
g5281
s(I22
I17
tp8516
g3479
s(I5
I2
tp8517
g6047
s(I5
I0
tp8518
g7091
ssg1850
(dp8519
(I9
I26
tp8520
g4182
s(I24
I9
tp8521
g3285
s(I24
I11
tp8522
g4552
s(I7
I26
tp8523
g7632
ssg1852
(dp8524
(I21
I30
tp8525
g8296
s(I23
I30
tp8526
g7455
s(I6
I15
tp8527
g7108
s(I6
I13
tp8528
g8038
ssg1854
(dp8529
(I25
I10
tp8530
g4585
s(I8
I27
tp8531
g4165
s(I10
I27
tp8532
g7477
s(I25
I12
tp8533
g7731
ssg1856
(dp8534
(I22
I31
tp8535
g7440
s(I7
I14
tp8536
g7141
s(I7
I16
tp8537
g3779
s(I24
I31
tp8538
g8124
ssg1858
(dp8539
(I11
I16
tp8540
g6472
s(I9
I16
tp8541
g7918
s(I26
I1
tp8542
g4613
ssg1860
(dp8543
(I24
I17
tp8544
g7708
s(I9
I0
tp8545
g2207
s(I7
I0
tp8546
g5521
s(I24
I15
tp8547
g6748
ssg1862
(dp8548
(I12
I29
tp8549
g3005
s(I10
I29
tp8550
g6458
s(I27
I12
tp8551
g4642
s(I27
I14
tp8552
g5752
ssg1864
(dp8553
(I16
I21
tp8554
g7401
s(I1
I6
tp8555
g4289
s(I16
I23
tp8556
g8284
ssg1866
(dp8557
(I23
I3
tp8558
g8107
s(I25
I3
tp8559
g3024
s(I8
I18
tp8560
g2556
s(I8
I20
tp8561
g3870
ssg1868
(dp8562
(I30
I11
tp8563
g4648
s(I30
I9
tp8564
g5756
s(I13
I26
tp8565
g6527
s(I15
I26
tp8566
g4814
ssg1870
(dp8567
(I13
I30
tp8568
g4308
s(I28
I13
tp8569
g3401
s(I28
I15
tp8570
g4661
s(I11
I30
tp8571
g5399
ssg1872
(dp8572
(I2
I7
tp8573
g3055
s(I17
I24
tp8574
g2841
s(I17
I22
tp8575
g8311
s(I0
I7
tp8576
g4265
ssg1874
(dp8577
(I9
I19
tp8578
g2570
s(I26
I2
tp8579
g6548
s(I9
I17
tp8580
g3886
s(I24
I2
tp8581
g2993
ssg1876
(dp8582
(I14
I19
tp8583
g2913
s(I31
I4
tp8584
g8269
s(I16
I19
tp8585
g6388
s(I31
I2
tp8586
g4666
ssg1878
(dp8587
(I29
I14
tp8588
g4681
s(I12
I31
tp8589
g4276
s(I14
I31
tp8590
g2212
s(I29
I16
tp8591
g6809
ssg1880
(dp8592
(I18
I19
tp8593
g2174
s(I18
I21
tp8594
g8330
s(I3
I4
tp8595
g3674
s(I1
I4
tp8596
g5437
ssg1882
(dp8597
(I10
I8
tp8598
g6166
s(I27
I25
tp8599
g7061
s(I25
I25
tp8600
g2946
s(I10
I10
tp8601
g5077
ssg1884
(dp8602
(I16
I11
tp8603
g3434
s(I16
I13
tp8604
g4691
s(I1
I28
tp8605
g2286
ssg1886
(dp8606
(I19
I8
tp8607
g4714
s(I19
I10
tp8608
g5818
s(I4
I25
tp8609
g7575
s(I2
I25
tp8610
g3649
ssg1888
(dp8611
(I26
I20
tp8612
g7037
s(I28
I20
tp8613
g5457
s(I11
I3
tp8614
g5085
s(I11
I5
tp8615
g6180
ssg1890
(dp8616
(I0
I25
tp8617
g5412
s(I17
I10
tp8618
g3466
s(I17
I8
tp8619
g4722
s(I2
I25
tp8620
g3651
ssg1892
(dp8621
(I20
I1
tp8622
g3487
s(I3
I18
tp8623
g8028
s(I5
I18
tp8624
g4408
s(I20
I3
tp8625
g4743
ssg1894
(dp8626
(I27
I23
tp8627
g7513
s(I29
I23
tp8628
g6557
s(I12
I6
tp8629
g6207
s(I12
I8
tp8630
g2599
ssg1896
(dp8631
(I18
I15
tp8632
g4753
s(I18
I13
tp8633
g5851
s(I1
I30
tp8634
g8390
s(I3
I30
tp8635
g7556
ssg1898
(dp8636
(I15
I11
tp8637
g6232
s(I30
I26
tp8638
g6078
s(I15
I9
tp8639
g5140
ssg1900
(dp8640
(I6
I19
tp8641
g7608
s(I21
I4
tp8642
g3517
s(I21
I2
tp8643
g4773
s(I4
I19
tp8644
g4382
ssg1902
(dp8645
(I13
I7
tp8646
g6235
s(I30
I22
tp8647
g3755
s(I13
I5
tp8648
g7260
s(I28
I22
tp8649
g6534
ssg1904
(dp8650
(I0
I6
tp8651
g7278
s(I15
I21
tp8652
g7254
s(I17
I21
tp8653
g5571
s(I0
I4
tp8654
g6259
ssg1906
(dp8655
(I22
I7
tp8656
g2848
s(I22
I9
tp8657
g4788
s(I7
I24
tp8658
g6656
s(I5
I24
tp8659
g2399
ssg1908
(dp8660
(I14
I20
tp8661
(dp8662
s(I31
I5
tp8663
g4405
s(I29
I5
tp8664
g6056
s(I14
I22
tp8665
g8131
ssg1910
(dp8666
(I3
I15
tp8667
g5173
s(I3
I17
tp8668
g2733
s(I20
I0
tp8669
g6667
s(I18
I0
tp8670
g8070
ssg1912
(dp8671
(I18
I16
tp8672
g6676
s(I16
I16
tp8673
g8076
s(I1
I1
tp8674
g6287
ssg1914
(dp8675
(I23
I12
tp8676
g4801
s(I23
I14
tp8677
g5891
s(I8
I29
tp8678
g5340
s(I6
I29
tp8679
g6626
ssg1916
(dp8680
(I30
I0
tp8681
g4371
s(I15
I15
tp8682
g3933
s(I15
I17
tp8683
(dp8684
ssg1918
(dp8685
(I4
I10
tp8686
g6297
s(I4
I12
tp8687
g2696
s(I19
I27
tp8688
g3115
s(I21
I27
tp8689
g6636
ssg1920
(dp8690
(I2
I8
tp8691
g5209
s(I2
I6
tp8692
g6307
s(I19
I23
tp8693
g8052
s(I17
I23
tp8694
g4453
ssg1922
(dp8695
(I15
I11
tp8696
g6230
s(I17
I11
tp8697
g6646
s(I0
I26
tp8698
(dp8699
s(I0
I28
tp8700
g3276
ssg1924
(dp8701
(I5
I9
tp8702
g7330
s(I22
I26
tp8703
g8096
s(I20
I26
tp8704
g6611
s(I5
I11
tp8705
g6316
ssg1926
(dp8706
(I18
I10
tp8707
g2481
s(I1
I27
tp8708
(dp8709
s(I1
I25
tp8710
g3308
s(I16
I10
tp8711
g6620
ssg1928
(dp8712
(I21
I17
tp8713
g3171
s(I6
I2
tp8714
g5239
s(I6
I0
tp8715
g6335
s(I23
I17
tp8716
g8511
ssg1930
(dp8717
(I25
I13
tp8718
g3627
s(I25
I11
tp8719
g7526
s(I10
I28
tp8720
(dp8721
s(I8
I28
tp8722
g8114
ssg1932
(dp8723
(I7
I3
tp8724
g2068
s(I7
I5
tp8725
g6362
s(I24
I20
tp8726
g5924
s(I22
I20
tp8727
g8495
ssg1934
(dp8728
(I9
I27
tp8729
g7217
s(I11
I27
tp8730
g6246
s(I26
I10
tp8731
g3660
s(I26
I12
tp8732
g2329
ssg1936
(dp8733
(I24
I22
tp8734
g6989
s(I24
I24
tp8735
g7927
s(I7
I7
tp8736
g7379
s(I9
I7
tp8737
g6711
ssg1938
(dp8738
(I12
I18
tp8739
g6761
s(I27
I1
tp8740
g2354
s(I27
I3
tp8741
g3681
s(I10
I18
tp8742
g6213
ssg1940
(dp8743
(I8
I6
tp8744
g6696
s(I10
I6
tp8745
g5645
s(I25
I21
tp8746
g7950
s(I25
I23
tp8747
g7015
ssg1942
(dp8748
(I8
I25
tp8749
g2878
s(I25
I10
tp8750
g4588
s(I8
I27
tp8751
g4167
s(I23
I10
tp8752
g7899
ssg1944
(dp8753
(I30
I12
tp8754
g3693
s(I15
I29
tp8755
g4533
s(I13
I29
tp8756
g8207
s(I30
I14
tp8757
g2367
ssg1946
(dp8758
(I28
I6
tp8759
g4943
s(I28
I4
tp8760
g3705
s(I13
I21
tp8761
g5707
s(I11
I21
tp8762
g4536
ssg1948
(dp8763
(I9
I5
tp8764
g7677
s(I26
I22
tp8765
g5990
s(I26
I20
tp8766
g7039
s(I11
I5
tp8767
g6178
ssg1950
(dp8768
(I9
I26
tp8769
g4180
s(I24
I11
tp8770
g4550
s(I26
I11
tp8771
g7754
s(I9
I28
tp8772
g7465
ssg1952
(dp8773
(I31
I7
tp8774
g5530
s(I16
I24
tp8775
g3812
s(I14
I24
tp8776
g4517
s(I31
I9
tp8777
g3715
ssg1954
(dp8778
(I29
I9
tp8779
g3734
s(I29
I7
tp8780
g4966
s(I14
I24
tp8781
g4519
s(I12
I24
tp8782
g8185
ssg1956
(dp8783
(I10
I8
tp8784
g6161
s(I27
I23
tp8785
g7509
s(I27
I25
tp8786
g7057
s(I12
I8
tp8787
g2597
ssg1958
(dp8788
(I10
I15
tp8789
g6955
s(I27
I0
tp8790
g6820
s(I25
I0
tp8791
g8199
s(I10
I17
tp8792
g4213
ssg1960
(dp8793
(I1
I19
tp8794
g6767
s(I16
I2
tp8795
g3741
s(I16
I4
tp8796
g4970
ssg1962
(dp8797
(I8
I1
tp8798
g7459
s(I25
I16
tp8799
g2616
s(I23
I16
tp8800
g5857
ssg1964
(dp8801
(I19
I15
tp8802
g3768
s(I2
I30
tp8803
g3346
s(I4
I30
tp8804
(dp8805
s(I19
I13
tp8806
g2444
ssg1966
(dp8807
(I28
I13
tp8808
g3404
s(I26
I13
tp8809
g6799
s(I11
I28
tp8810
g4249
s(I11
I30
tp8811
g5401
ssg1968
(dp8812
(I17
I1
tp8813
g4996
s(I17
I3
tp8814
g3771
s(I0
I18
tp8815
g6742
s(I2
I18
tp8816
g2641
ssg1970
(dp8817
(I5
I25
tp8818
g5784
s(I3
I25
tp8819
g7347
s(I20
I8
tp8820
g3796
s(I20
I10
tp8821
g5020
ssg1972
(dp8822
(I12
I29
tp8823
g3000
s(I29
I14
tp8824
g4684
s(I12
I31
tp8825
g4278
s(I27
I14
tp8826
g5750
ssg1974
(dp8827
(I18
I8
tp8828
g3805
s(I3
I25
tp8829
g7349
s(I1
I25
tp8830
g3311
s(I18
I10
tp8831
g2487
ssg1976
(dp8832
(I6
I28
tp8833
g2111
s(I4
I28
tp8834
g8250
s(I21
I13
tp8835
g3821
s(I21
I11
tp8836
g5040
ssg1978
(dp8837
(I13
I30
tp8838
g4306
s(I28
I15
tp8839
g4659
s(I30
I15
tp8840
g6828
ssg1980
(dp8841
(I4
I4
tp8842
g5765
s(I19
I19
tp8843
g6084
s(I2
I4
tp8844
g7326
s(I19
I21
tp8845
g7126
ssg1982
(dp8846
(I7
I19
tp8847
g7839
s(I22
I2
tp8848
g3835
s(I22
I4
tp8849
g7183
s(I5
I19
tp8850
g7388
ssg1984
(dp8851
(I14
I27
tp8852
g7472
s(I31
I12
tp8853
g5778
s(I29
I12
tp8854
g5788
s(I14
I29
tp8855
g3547
ssg1986
(dp8856
(I3
I7
tp8857
g7765
s(I5
I7
tp8858
g6854
s(I20
I22
tp8859
g7155
s(I20
I24
tp8860
g5541
ssg1988
(dp8861
(I3
I24
tp8862
g4354
s(I3
I26
tp8863
g5485
s(I20
I9
tp8864
g7853
s(I18
I9
tp8865
g7858
ssg1990
(dp8866
(I23
I11
tp8867
g3857
s(I6
I26
tp8868
g6400
s(I8
I26
tp8869
g7204
s(I23
I9
tp8870
g2540
ssg1992
(dp8871
(I30
I9
tp8872
g5759
s(I15
I24
tp8873
g3568
s(I15
I26
tp8874
g4818
ssg1994
(dp8875
(I21
I21
tp8876
g8081
s(I21
I23
tp8877
g7172
s(I4
I6
tp8878
g6834
s(I6
I6
tp8879
g7352
ssg1996
(dp8880
(I21
I2
tp8881
g4771
s(I19
I2
tp8882
g8302
s(I4
I17
tp8883
g3106
s(I4
I19
tp8884
g4376
ssg1998
(dp8885
(I0
I17
tp8886
g2250
s(I17
I2
tp8887
g7836
s(I0
I19
tp8888
g3582
s(I15
I2
tp8889
g5968
ssg2000
(dp8890
(I22
I3
tp8891
g7886
s(I5
I20
tp8892
g3140
s(I5
I18
tp8893
g4413
s(I20
I3
tp8894
g4749
ssg2002
(dp8895
(I1
I18
tp8896
g3613
s(I16
I3
tp8897
g7811
s(I18
I3
tp8898
g4109
s(I1
I20
tp8899
g7006
ssg2004
(dp8900
(I23
I8
tp8901
g6947
s(I6
I25
tp8902
g4436
s(I6
I23
tp8903
g2426
s(I21
I8
tp8904
g2830
ssg2006
(dp8905
(I2
I23
tp8906
g4892
s(I19
I8
tp8907
g4716
s(I17
I8
tp8908
g4719
s(I2
I25
tp8909
g3647
ssg2008
(dp8910
(I7
I28
tp8911
g4462
s(I7
I30
tp8912
g5580
s(I24
I13
tp8913
g5666
s(I22
I13
tp8914
g6936
ssg2010
(dp8915
(I24
I29
tp8916
g7222
s(I7
I14
tp8917
g7137
s(I9
I14
tp8918
g7889
s(I24
I31
tp8919
g8122
ssg2012
(dp8920
(I10
I15
tp8921
g6961
s(I25
I30
tp8922
g8149
s(I8
I15
tp8923
g7879
ssg2014
(dp8924
(I15
I4
tp8925
g2298
s(I30
I19
tp8926
g5807
s(I13
I4
tp8927
g4236
s(I30
I21
tp8928
g8662
ssg2016
(dp8929
(I26
I27
tp8930
(dp8931
s(I26
I29
tp8932
g8168
s(I11
I12
tp8933
g5914
s(I9
I12
tp8934
g8721
ssg2018
(dp8935
(I9
I29
tp8936
g3232
s(I9
I27
tp8937
g7219
s(I26
I12
tp8938
g2331
s(I24
I12
tp8939
g8375
ssg2020
(dp8940
(I16
I1
tp8941
g6867
s(I14
I1
tp8942
g2268
s(I31
I16
tp8943
g8684
s(I31
I18
tp8944
g2798
ssg2022
(dp8945
(I29
I2
tp8946
g4033
s(I14
I17
tp8947
g4196
s(I12
I17
tp8948
g2271
s(I29
I0
tp8949
g5225
ssg2024
(dp8950
(I27
I16
tp8951
g8190
s(I27
I18
tp8952
(dp8953
s(I12
I1
tp8954
g4208
s(I10
I1
tp8955
g5898
ssg2026
(dp8956
(I27
I11
tp8957
g6569
s(I25
I11
tp8958
g7524
s(I10
I28
tp8959
g8931
s(I10
I26
tp8960
g3246
ssg2028
(dp8961
(I1
I10
tp8962
g4930
s(I16
I25
tp8963
g7866
s(I16
I27
tp8964
g8699
ssg2030
(dp8965
(I8
I6
tp8966
g6698
s(I8
I8
tp8967
g7666
s(I23
I23
tp8968
g7655
s(I25
I23
tp8969
g7017
ssg2032
(dp8970
(I28
I25
tp8971
g7318
s(I11
I10
tp8972
g4821
s(I13
I10
tp8973
g7961
s(I28
I27
tp8974
g8210
ssg2034
(dp8975
(I28
I2
tp8976
g7078
s(I11
I17
tp8977
g8953
s(I11
I19
tp8978
g3261
s(I26
I2
tp8979
g6550
ssg2036
(dp8980
(I17
I26
tp8981
g8709
s(I0
I11
tp8982
g4904
s(I2
I11
tp8983
g8009
s(I17
I28
tp8984
g5311
ssg2038
(dp8985
(I9
I5
tp8986
g7675
s(I26
I22
tp8987
g5992
s(I24
I22
tp8988
g6984
s(I9
I7
tp8989
g6709
ssg2040
(dp8990
(I14
I11
tp8991
g5937
s(I29
I28
tp8992
g7341
s(I29
I26
tp8993
g8229
s(I12
I11
tp8994
g7938
ssg2042
(dp8995
(I12
I20
tp8996
g3290
s(I29
I5
tp8997
g6053
s(I12
I22
tp8998
g4565
s(I27
I5
tp8999
g4920
ssg2044
(dp9000
(I3
I16
tp9001
g7102
s(I1
I16
tp9002
g4861
s(I18
I1
tp9003
g5286
ssg2046
(dp9004
(I25
I21
tp9005
g7948
s(I10
I6
tp9006
g5643
s(I10
I4
tp9007
g6722
s(I27
I21
tp9008
g6509
ssg2048
(dp9009
(I13
I25
tp9010
g3329
s(I13
I23
tp9011
g4594
s(I30
I8
tp9012
g8436
s(I28
I8
tp9013
g8447
ssg2050
(dp9014
(I4
I13
tp9015
g7074
s(I2
I13
tp9016
g7088
s(I19
I28
tp9017
g8260
s(I19
I30
tp9018
(dp9019
ssg2052
(dp9020
(I11
I7
tp9021
g7209
s(I11
I9
tp9022
g6735
s(I28
I24
tp9023
g3040
s(I26
I24
tp9024
g6482
ssg2054
(dp9025
(I31
I23
tp9026
g3787
s(I29
I23
tp9027
g6559
s(I14
I8
tp9028
g2588
s(I14
I6
tp9029
g6756
ssg2056
(dp9030
(I5
I14
tp9031
g8018
s(I20
I29
tp9032
g7397
s(I20
I31
tp9033
g8281
s(I3
I14
tp9034
g8805
ssg2058
(dp9035
(I3
I31
tp9036
g3371
s(I18
I14
tp9037
g7649
s(I20
I14
tp9038
g2478
s(I3
I29
tp9039
g9019
sssS'adj'
p9040
g2063
sbsS'cc_spatial'
p9041
(lp9042
(lp9043
I1
aI1
aI1
aI1
aI1
aI1
aI1
aI1
aI1
aI1
aI1
aI1
aI1
aI1
aI1
aI1
aI1
aI1
aI1
aI1
aI1
aI1
aI1
aI1
aI1
aI1
aI1
aI1
aI1
aI1
aI1
aI1
aa(lp9044
I1
aI1
aI1
aI1
aI1
aI1
aI1
aI1
aI1
aI1
aI1
aI1
aI1
aI1
aI1
aI1
aI1
aI1
aI1
aI1
aI1
aI1
aI1
aI1
aI1
aI1
aI1
aI1
aI1
aI1
aI1
aI1
aa(lp9045
I1
aI1
aI1
aI1
aI1
aI1
aI1
aI1
aI1
aI1
aI1
aI1
aI1
aI1
aI1
aI1
aI1
aI1
aI1
aI1
aI1
aI1
aI1
aI1
aI1
aI1
aI1
aI1
aI1
aI1
aI1
aI1
aa(lp9046
I1
aI1
aI1
aI1
aI1
aI1
aI1
aI1
aI1
aI1
aI1
aI1
aI1
aI1
aI1
aI1
aI1
aI1
aI1
aI1
aI1
aI1
aI1
aI1
aI1
aI1
aI1
aI1
aI1
aI1
aI1
aI1
aa(lp9047
I1
aI1
aI1
aI1
aI1
aI1
aI1
aI1
aI1
aI1
aI1
aI1
aI1
aI1
aI1
aI1
aI1
aI1
aI1
aI1
aI1
aI1
aI1
aI1
aI1
aI1
aI1
aI1
aI1
aI1
aI1
aI1
aa(lp9048
I1
aI1
aI1
aI1
aI1
aI1
aI1
aI1
aI1
aI1
aI1
aI1
aI1
aI1
aI1
aI1
aI1
aI1
aI1
aI1
aI1
aI1
aI1
aI1
aI1
aI1
aI1
aI1
aI1
aI1
aI1
aI1
aa(lp9049
I1
aI1
aI1
aI1
aI1
aI1
aI1
aI1
aI1
aI1
aI1
aI1
aI1
aI1
aI1
aI1
aI1
aI1
aI1
aI1
aI1
aI1
aI1
aI1
aI1
aI1
aI1
aI1
aI1
aI1
aI1
aI1
aa(lp9050
I1
aI1
aI1
aI1
aI1
aI1
aI1
aI1
aI1
aI1
aI1
aI1
aI1
aI1
aI1
aI1
aI1
aI1
aI1
aI1
aI1
aI1
aI1
aI1
aI1
aI1
aI1
aI1
aI1
aI1
aI1
aI1
aa(lp9051
I1
aI1
aI1
aI1
aI1
aI1
aI1
aI1
aI1
aI1
aI1
aI1
aI1
aI1
aI1
aI1
aI1
aI1
aI1
aI1
aI1
aI1
aI1
aI1
aI1
aI1
aI1
aI1
aI1
aI1
aI1
aI1
aa(lp9052
I1
aI1
aI1
aI1
aI1
aI1
aI1
aI1
aI1
aI1
aI1
aI1
aI1
aI1
aI1
aI1
aI1
aI1
aI1
aI1
aI1
aI1
aI1
aI1
aI1
aI1
aI1
aI1
aI1
aI1
aI1
aI1
aa(lp9053
I1
aI1
aI1
aI1
aI1
aI1
aI1
aI1
aI1
aI1
aI1
aI1
aI1
aI1
aI1
aI1
aI1
aI1
aI1
aI1
aI1
aI1
aI1
aI1
aI1
aI1
aI1
aI1
aI1
aI1
aI1
aI1
aa(lp9054
I1
aI1
aI1
aI1
aI1
aI1
aI1
aI1
aI1
aI1
aI1
aI1
aI1
aI1
aI1
aI1
aI1
aI1
aI1
aI1
aI1
aI1
aI1
aI1
aI1
aI1
aI1
aI1
aI1
aI1
aI1
aI1
aa(lp9055
I1
aI1
aI1
aI1
aI1
aI1
aI1
aI1
aI1
aI1
aI1
aI1
aI1
aI1
aI1
aI1
aI1
aI1
aI1
aI1
aI1
aI1
aI1
aI1
aI1
aI1
aI1
aI1
aI1
aI1
aI1
aI1
aa(lp9056
I1
aI1
aI1
aI1
aI1
aI1
aI1
aI1
aI1
aI1
aI1
aI1
aI1
aI1
aI1
aI1
aI1
aI1
aI1
aI1
aI1
aI1
aI1
aI1
aI1
aI1
aI1
aI1
aI1
aI1
aI1
aI1
aa(lp9057
I1
aI1
aI1
aI1
aI1
aI1
aI1
aI1
aI1
aI1
aI1
aI1
aI1
aI1
aI1
aI1
aI1
aI1
aI1
aI1
aI1
aI1
aI1
aI1
aI1
aI1
aI1
aI1
aI1
aI1
aI1
aI1
aa(lp9058
I1
aI1
aI1
aI1
aI1
aI1
aI1
aI1
aI1
aI1
aI1
aI1
aI1
aI1
aI1
aI1
aI1
aI1
aI1
aI1
aI1
aI1
aI1
aI1
aI1
aI1
aI1
aI1
aI1
aI1
aI1
aI1
aa(lp9059
I1
aI1
aI1
aI1
aI1
aI1
aI1
aI1
aI1
aI1
aI1
aI1
aI1
aI1
aI1
aI1
aI1
aI1
aI1
aI1
aI1
aI1
aI1
aI1
aI1
aI1
aI1
aI1
aI1
aI1
aI1
aI1
aa(lp9060
I1
aI1
aI1
aI1
aI1
aI1
aI1
aI1
aI1
aI1
aI1
aI1
aI1
aI1
aI1
aI1
aI1
aI1
aI1
aI1
aI1
aI1
aI1
aI1
aI1
aI1
aI1
aI1
aI1
aI1
aI1
aI1
aa(lp9061
I1
aI1
aI1
aI1
aI1
aI1
aI1
aI1
aI1
aI1
aI1
aI1
aI1
aI1
aI1
aI1
aI1
aI1
aI1
aI1
aI1
aI1
aI1
aI1
aI1
aI1
aI1
aI1
aI1
aI1
aI1
aI1
aa(lp9062
I1
aI1
aI1
aI1
aI1
aI1
aI1
aI1
aI1
aI1
aI1
aI1
aI1
aI1
aI1
aI1
aI1
aI1
aI1
aI1
aI1
aI1
aI1
aI1
aI1
aI1
aI1
aI1
aI1
aI1
aI1
aI1
aa(lp9063
I1
aI1
aI1
aI1
aI1
aI1
aI1
aI1
aI1
aI1
aI1
aI1
aI1
aI1
aI1
aI1
aI1
aI1
aI1
aI1
aI1
aI1
aI1
aI1
aI1
aI1
aI1
aI1
aI1
aI1
aI1
aI1
aa(lp9064
I1
aI1
aI1
aI1
aI1
aI1
aI1
aI1
aI1
aI1
aI1
aI1
aI1
aI1
aI1
aI1
aI1
aI1
aI1
aI1
aI1
aI1
aI1
aI1
aI1
aI1
aI1
aI1
aI1
aI1
aI1
aI1
aa(lp9065
I1
aI1
aI1
aI1
aI1
aI1
aI1
aI1
aI1
aI1
aI1
aI1
aI1
aI1
aI1
aI1
aI1
aI1
aI1
aI1
aI1
aI1
aI1
aI1
aI1
aI1
aI1
aI1
aI1
aI1
aI1
aI1
aa(lp9066
I1
aI1
aI1
aI1
aI1
aI1
aI1
aI1
aI1
aI1
aI1
aI1
aI1
aI1
aI1
aI1
aI1
aI1
aI1
aI1
aI1
aI1
aI1
aI1
aI1
aI1
aI1
aI1
aI1
aI1
aI1
aI1
aa(lp9067
I1
aI1
aI1
aI1
aI1
aI1
aI1
aI1
aI1
aI1
aI1
aI1
aI1
aI1
aI1
aI1
aI1
aI1
aI1
aI1
aI1
aI1
aI1
aI1
aI1
aI1
aI1
aI1
aI1
aI1
aI1
aI1
aa(lp9068
I1
aI1
aI1
aI1
aI1
aI1
aI1
aI1
aI1
aI1
aI1
aI1
aI1
aI1
aI1
aI1
aI1
aI1
aI1
aI1
aI1
aI1
aI1
aI1
aI1
aI1
aI1
aI1
aI1
aI1
aI1
aI1
aa(lp9069
I1
aI1
aI1
aI1
aI1
aI1
aI1
aI1
aI1
aI1
aI1
aI1
aI1
aI1
aI1
aI1
aI1
aI1
aI1
aI1
aI1
aI1
aI1
aI1
aI1
aI1
aI1
aI1
aI1
aI1
aI1
aI1
aa(lp9070
I1
aI1
aI1
aI1
aI1
aI1
aI1
aI1
aI1
aI1
aI1
aI1
aI1
aI1
aI1
aI1
aI1
aI1
aI1
aI1
aI1
aI1
aI1
aI1
aI1
aI1
aI1
aI1
aI1
aI1
aI1
aI1
aa(lp9071
I1
aI1
aI1
aI1
aI1
aI1
aI1
aI1
aI1
aI1
aI1
aI1
aI1
aI1
aI1
aI1
aI1
aI1
aI1
aI1
aI1
aI1
aI1
aI1
aI1
aI1
aI1
aI1
aI1
aI1
aI1
aI1
aa(lp9072
I1
aI1
aI1
aI1
aI1
aI1
aI1
aI1
aI1
aI1
aI1
aI1
aI1
aI1
aI1
aI1
aI1
aI1
aI1
aI1
aI1
aI1
aI1
aI1
aI1
aI1
aI1
aI1
aI1
aI1
aI1
aI1
aa(lp9073
I1
aI1
aI1
aI1
aI1
aI1
aI1
aI1
aI1
aI1
aI1
aI1
aI1
aI1
aI1
aI1
aI1
aI1
aI1
aI1
aI1
aI1
aI1
aI1
aI1
aI1
aI1
aI1
aI1
aI1
aI1
aI1
aa(lp9074
I1
aI1
aI1
aI1
aI1
aI1
aI1
aI1
aI1
aI1
aI1
aI1
aI1
aI1
aI1
aI1
aI1
aI1
aI1
aI1
aI1
aI1
aI1
aI1
aI1
aI1
aI1
aI1
aI1
aI1
aI1
aI1
aasS'q'
p9075
I16
sS'p'
p9076
I1
sS'degree_spatial'
p9077
(lp9078
(lp9079
I2
aI3
aI3
aI3
aI3
aI3
aI3
aI3
aI3
aI3
aI3
aI3
aI3
aI3
aI3
aI3
aI3
aI3
aI3
aI3
aI3
aI3
aI3
aI3
aI3
aI3
aI3
aI3
aI3
aI3
aI3
aI2
aa(lp9080
I3
aI4
aI4
aI4
aI4
aI4
aI4
aI4
aI4
aI4
aI4
aI4
aI4
aI4
aI4
aI4
aI4
aI4
aI4
aI4
aI4
aI4
aI4
aI4
aI4
aI4
aI4
aI4
aI4
aI4
aI4
aI3
aa(lp9081
I3
aI4
aI4
aI4
aI4
aI4
aI4
aI4
aI4
aI4
aI4
aI4
aI4
aI4
aI4
aI4
aI4
aI4
aI4
aI4
aI4
aI4
aI4
aI4
aI4
aI4
aI4
aI4
aI4
aI4
aI4
aI3
aa(lp9082
I3
aI4
aI4
aI4
aI4
aI4
aI4
aI4
aI4
aI4
aI4
aI4
aI4
aI4
aI4
aI4
aI4
aI4
aI4
aI4
aI4
aI4
aI4
aI4
aI4
aI4
aI4
aI4
aI4
aI4
aI4
aI3
aa(lp9083
I3
aI4
aI4
aI4
aI4
aI4
aI4
aI4
aI4
aI4
aI4
aI4
aI4
aI4
aI4
aI4
aI4
aI4
aI4
aI4
aI4
aI4
aI4
aI4
aI4
aI4
aI4
aI4
aI4
aI4
aI4
aI3
aa(lp9084
I3
aI4
aI4
aI4
aI4
aI4
aI4
aI4
aI4
aI4
aI4
aI4
aI4
aI4
aI4
aI4
aI4
aI4
aI4
aI4
aI4
aI4
aI4
aI4
aI4
aI4
aI4
aI4
aI4
aI4
aI4
aI3
aa(lp9085
I3
aI4
aI4
aI4
aI4
aI4
aI4
aI4
aI4
aI4
aI4
aI4
aI4
aI4
aI4
aI4
aI4
aI4
aI4
aI4
aI4
aI4
aI4
aI4
aI4
aI4
aI4
aI4
aI4
aI4
aI4
aI3
aa(lp9086
I3
aI4
aI4
aI4
aI4
aI4
aI4
aI4
aI4
aI4
aI4
aI4
aI4
aI4
aI4
aI4
aI4
aI4
aI4
aI4
aI4
aI4
aI4
aI4
aI4
aI4
aI4
aI4
aI4
aI4
aI4
aI3
aa(lp9087
I3
aI4
aI4
aI4
aI4
aI4
aI4
aI4
aI4
aI4
aI4
aI4
aI4
aI4
aI4
aI4
aI4
aI4
aI4
aI4
aI4
aI4
aI4
aI4
aI4
aI4
aI4
aI4
aI4
aI4
aI4
aI3
aa(lp9088
I3
aI4
aI4
aI4
aI4
aI4
aI4
aI4
aI4
aI4
aI4
aI4
aI4
aI4
aI4
aI4
aI4
aI4
aI4
aI4
aI4
aI4
aI4
aI4
aI4
aI4
aI4
aI4
aI4
aI4
aI4
aI3
aa(lp9089
I3
aI4
aI4
aI4
aI4
aI4
aI4
aI4
aI4
aI4
aI4
aI4
aI4
aI4
aI4
aI4
aI4
aI4
aI4
aI4
aI4
aI4
aI4
aI4
aI4
aI4
aI4
aI4
aI4
aI4
aI4
aI3
aa(lp9090
I3
aI4
aI4
aI4
aI4
aI4
aI4
aI4
aI4
aI4
aI4
aI4
aI4
aI4
aI4
aI4
aI4
aI4
aI4
aI4
aI4
aI4
aI4
aI4
aI4
aI4
aI4
aI4
aI4
aI4
aI4
aI3
aa(lp9091
I3
aI4
aI4
aI4
aI4
aI4
aI4
aI4
aI4
aI4
aI4
aI4
aI4
aI4
aI4
aI4
aI4
aI4
aI4
aI4
aI4
aI4
aI4
aI4
aI4
aI4
aI4
aI4
aI4
aI4
aI4
aI3
aa(lp9092
I3
aI4
aI4
aI4
aI4
aI4
aI4
aI4
aI4
aI4
aI4
aI4
aI4
aI4
aI4
aI4
aI4
aI4
aI4
aI4
aI4
aI4
aI4
aI4
aI4
aI4
aI4
aI4
aI4
aI4
aI4
aI3
aa(lp9093
I3
aI4
aI4
aI4
aI4
aI4
aI4
aI4
aI4
aI4
aI4
aI4
aI4
aI4
aI4
aI4
aI4
aI4
aI4
aI4
aI4
aI4
aI4
aI4
aI4
aI4
aI4
aI4
aI4
aI4
aI4
aI3
aa(lp9094
I3
aI4
aI4
aI4
aI4
aI4
aI4
aI4
aI4
aI4
aI4
aI4
aI4
aI4
aI4
aI4
aI4
aI4
aI4
aI4
aI4
aI4
aI4
aI4
aI4
aI4
aI4
aI4
aI4
aI4
aI4
aI3
aa(lp9095
I3
aI4
aI4
aI4
aI4
aI4
aI4
aI4
aI4
aI4
aI4
aI4
aI4
aI4
aI4
aI4
aI4
aI4
aI4
aI4
aI4
aI4
aI4
aI4
aI4
aI4
aI4
aI4
aI4
aI4
aI4
aI3
aa(lp9096
I3
aI4
aI4
aI4
aI4
aI4
aI4
aI4
aI4
aI4
aI4
aI4
aI4
aI4
aI4
aI4
aI4
aI4
aI4
aI4
aI4
aI4
aI4
aI4
aI4
aI4
aI4
aI4
aI4
aI4
aI4
aI3
aa(lp9097
I3
aI4
aI4
aI4
aI4
aI4
aI4
aI4
aI4
aI4
aI4
aI4
aI4
aI4
aI4
aI4
aI4
aI4
aI4
aI4
aI4
aI4
aI4
aI4
aI4
aI4
aI4
aI4
aI4
aI4
aI4
aI3
aa(lp9098
I3
aI4
aI4
aI4
aI4
aI4
aI4
aI4
aI4
aI4
aI4
aI4
aI4
aI4
aI4
aI4
aI4
aI4
aI4
aI4
aI4
aI4
aI4
aI4
aI4
aI4
aI4
aI4
aI4
aI4
aI4
aI3
aa(lp9099
I3
aI4
aI4
aI4
aI4
aI4
aI4
aI4
aI4
aI4
aI4
aI4
aI4
aI4
aI4
aI4
aI4
aI4
aI4
aI4
aI4
aI4
aI4
aI4
aI4
aI4
aI4
aI4
aI4
aI4
aI4
aI3
aa(lp9100
I3
aI4
aI4
aI4
aI4
aI4
aI4
aI4
aI4
aI4
aI4
aI4
aI4
aI4
aI4
aI4
aI4
aI4
aI4
aI4
aI4
aI4
aI4
aI4
aI4
aI4
aI4
aI4
aI4
aI4
aI4
aI3
aa(lp9101
I3
aI4
aI4
aI4
aI4
aI4
aI4
aI4
aI4
aI4
aI4
aI4
aI4
aI4
aI4
aI4
aI4
aI4
aI4
aI4
aI4
aI4
aI4
aI4
aI4
aI4
aI4
aI4
aI4
aI4
aI4
aI3
aa(lp9102
I3
aI4
aI4
aI4
aI4
aI4
aI4
aI4
aI4
aI4
aI4
aI4
aI4
aI4
aI4
aI4
aI4
aI4
aI4
aI4
aI4
aI4
aI4
aI4
aI4
aI4
aI4
aI4
aI4
aI4
aI4
aI3
aa(lp9103
I3
aI4
aI4
aI4
aI4
aI4
aI4
aI4
aI4
aI4
aI4
aI4
aI4
aI4
aI4
aI4
aI4
aI4
aI4
aI4
aI4
aI4
aI4
aI4
aI4
aI4
aI4
aI4
aI4
aI4
aI4
aI3
aa(lp9104
I3
aI4
aI4
aI4
aI4
aI4
aI4
aI4
aI4
aI4
aI4
aI4
aI4
aI4
aI4
aI4
aI4
aI4
aI4
aI4
aI4
aI4
aI4
aI4
aI4
aI4
aI4
aI4
aI4
aI4
aI4
aI3
aa(lp9105
I3
aI4
aI4
aI4
aI4
aI4
aI4
aI4
aI4
aI4
aI4
aI4
aI4
aI4
aI4
aI4
aI4
aI4
aI4
aI4
aI4
aI4
aI4
aI4
aI4
aI4
aI4
aI4
aI4
aI4
aI4
aI3
aa(lp9106
I3
aI4
aI4
aI4
aI4
aI4
aI4
aI4
aI4
aI4
aI4
aI4
aI4
aI4
aI4
aI4
aI4
aI4
aI4
aI4
aI4
aI4
aI4
aI4
aI4
aI4
aI4
aI4
aI4
aI4
aI4
aI3
aa(lp9107
I3
aI4
aI4
aI4
aI4
aI4
aI4
aI4
aI4
aI4
aI4
aI4
aI4
aI4
aI4
aI4
aI4
aI4
aI4
aI4
aI4
aI4
aI4
aI4
aI4
aI4
aI4
aI4
aI4
aI4
aI4
aI3
aa(lp9108
I3
aI4
aI4
aI4
aI4
aI4
aI4
aI4
aI4
aI4
aI4
aI4
aI4
aI4
aI4
aI4
aI4
aI4
aI4
aI4
aI4
aI4
aI4
aI4
aI4
aI4
aI4
aI4
aI4
aI4
aI4
aI3
aa(lp9109
I3
aI4
aI4
aI4
aI4
aI4
aI4
aI4
aI4
aI4
aI4
aI4
aI4
aI4
aI4
aI4
aI4
aI4
aI4
aI4
aI4
aI4
aI4
aI4
aI4
aI4
aI4
aI4
aI4
aI4
aI4
aI3
aa(lp9110
I2
aI3
aI3
aI3
aI3
aI3
aI3
aI3
aI3
aI3
aI3
aI3
aI3
aI3
aI3
aI3
aI3
aI3
aI3
aI3
aI3
aI3
aI3
aI3
aI3
aI3
aI3
aI3
aI3
aI3
aI3
aI2
aasb.