(i__main__
GraphData
p0
(dp1
S'd_hist'
p2
NsS'g'
p3
ccopy_reg
_reconstructor
p4
(cnetworkx.classes.graph
Graph
p5
c__builtin__
object
p6
Ntp7
Rp8
(dp9
S'node'
p10
(dp11
(I7
I3
tp12
(dp13
s(I31
I6
tp14
(dp15
s(I5
I31
tp16
(dp17
s(I20
I25
tp18
(dp19
s(I16
I9
tp20
(dp21
s(I6
I28
tp22
(dp23
s(I21
I28
tp24
(dp25
s(I19
I4
tp26
(dp27
s(I17
I20
tp28
(dp29
s(I7
I25
tp30
(dp31
s(I22
I19
tp32
(dp33
s(I20
I7
tp34
(dp35
s(I18
I19
tp36
(dp37
s(I23
I26
tp38
(dp39
s(I21
I6
tp40
(dp41
s(I8
I5
tp42
(dp43
s(I9
I0
tp44
(dp45
s(I14
I31
tp46
(dp47
s(I10
I7
tp48
(dp49
s(I15
I30
tp50
(dp51
s(I11
I22
tp52
(dp53
s(I0
I17
tp54
(dp55
s(I24
I14
tp56
(dp57
s(I14
I1
tp58
(dp59
s(I12
I17
tp60
(dp61
s(I1
I28
tp62
(dp63
s(I25
I15
tp64
(dp65
s(I15
I4
tp66
(dp67
s(I13
I20
tp68
(dp69
s(I2
I27
tp70
(dp71
s(I26
I12
tp72
(dp73
s(I29
I17
tp74
(dp75
s(I3
I2
tp76
(dp77
s(I27
I1
tp78
(dp79
s(I30
I14
tp80
(dp81
s(I4
I5
tp82
(dp83
s(I28
I10
tp84
(dp85
s(I31
I15
tp86
(dp87
s(I5
I24
tp88
(dp89
s(I29
I11
tp90
(dp91
s(I16
I0
tp92
(dp93
s(I6
I23
tp94
(dp95
s(I30
I16
tp96
(dp97
s(I19
I13
tp98
(dp99
s(I17
I13
tp100
(dp101
s(I7
I22
tp102
(dp103
s(I31
I21
tp104
(dp105
s(I20
I14
tp106
(dp107
s(I18
I10
tp108
(dp109
s(I23
I19
tp110
(dp111
s(I21
I15
tp112
(dp113
s(I8
I12
tp114
(dp115
s(I22
I12
tp116
(dp117
s(I9
I9
tp118
(dp119
s(I23
I9
tp120
(dp121
s(I10
I14
tp122
(dp123
s(I8
I18
tp124
(dp125
s(I11
I15
tp126
(dp127
s(I9
I19
tp128
(dp129
s(I24
I21
tp130
(dp131
s(I14
I8
tp132
(dp133
s(I12
I8
tp134
(dp135
s(I1
I21
tp136
(dp137
s(I25
I16
tp138
(dp139
s(I15
I13
tp140
(dp141
s(I13
I13
tp142
(dp143
s(I2
I18
tp144
(dp145
s(I26
I23
tp146
(dp147
s(I0
I14
tp148
(dp149
s(I3
I11
tp150
(dp151
s(I27
I6
tp152
(dp153
s(I1
I15
tp154
(dp155
s(I4
I12
tp156
(dp157
s(I28
I1
tp158
(dp159
s(I2
I12
tp160
(dp161
s(I5
I1
tp162
(dp163
s(I29
I4
tp164
(dp165
s(I3
I17
tp166
(dp167
s(I16
I7
tp168
(dp169
s(I6
I14
tp170
(dp171
s(I30
I27
tp172
(dp173
s(I19
I18
tp174
(dp175
s(I17
I6
tp176
(dp177
s(I7
I15
tp178
(dp179
s(I31
I18
tp180
(dp181
s(I20
I21
tp182
(dp183
s(I18
I5
tp184
(dp185
s(I16
I29
tp186
(dp187
s(I21
I8
tp188
(dp189
s(I17
I24
tp190
(dp191
s(I22
I7
tp192
(dp193
s(I18
I31
tp194
(dp195
s(I23
I6
tp196
(dp197
s(I10
I9
tp198
(dp199
s(I8
I25
tp200
(dp201
s(I11
I4
tp202
(dp203
s(I9
I20
tp204
(dp205
s(I24
I28
tp206
(dp207
s(I14
I19
tp208
(dp209
s(I12
I7
tp210
(dp211
s(I10
I19
tp212
(dp213
s(I25
I25
tp214
(dp215
s(I15
I10
tp216
(dp217
s(I13
I6
tp218
(dp219
s(I11
I26
tp220
(dp221
s(I26
I30
tp222
(dp223
s(I0
I5
tp224
(dp225
s(I24
I2
tp226
(dp227
s(I12
I29
tp228
(dp229
s(I27
I31
tp230
(dp231
s(I1
I0
tp232
(dp233
s(I25
I3
tp234
(dp235
s(I4
I11
tp236
(dp237
s(I28
I24
tp238
(dp239
s(I2
I7
tp240
(dp241
s(I5
I10
tp242
(dp243
s(I29
I29
tp244
(dp245
s(I3
I22
tp246
(dp247
s(I6
I1
tp248
(dp249
s(I30
I2
tp250
(dp251
s(I4
I17
tp252
(dp253
s(I19
I27
tp254
(dp255
s(I7
I4
tp256
(dp257
s(I31
I27
tp258
(dp259
s(I5
I20
tp260
(dp261
s(I20
I28
tp262
(dp263
s(I16
I20
tp264
(dp265
s(I6
I27
tp266
(dp267
s(I21
I17
tp268
(dp269
s(I19
I1
tp270
(dp271
s(I17
I17
tp272
(dp273
s(I22
I30
tp274
(dp275
s(I18
I22
tp276
(dp277
s(I23
I31
tp278
(dp279
s(I8
I0
tp280
(dp281
s(I9
I29
tp282
(dp283
s(I14
I26
tp284
(dp285
s(I10
I26
tp286
(dp287
s(I15
I19
tp288
(dp289
s(I11
I19
tp290
(dp291
s(I26
I25
tp292
(dp293
s(I0
I28
tp294
(dp295
s(I24
I9
tp296
(dp297
s(I12
I20
tp298
(dp299
s(I27
I20
tp300
(dp301
s(I1
I25
tp302
(dp303
s(I25
I4
tp304
(dp305
s(I13
I25
tp306
(dp307
s(I28
I23
tp308
(dp309
s(I2
I30
tp310
(dp311
s(I26
I3
tp312
(dp313
s(I29
I22
tp314
(dp315
s(I3
I31
tp316
(dp317
s(I27
I10
tp318
(dp319
s(I30
I5
tp320
(dp321
s(I4
I24
tp322
(dp323
s(I28
I13
tp324
(dp325
s(I31
I0
tp326
(dp327
s(I5
I29
tp328
(dp329
s(I20
I27
tp330
(dp331
s(I16
I11
tp332
(dp333
s(I6
I18
tp334
(dp335
s(I21
I26
tp336
(dp337
s(I19
I6
tp338
(dp339
s(I17
I10
tp340
(dp341
s(I7
I27
tp342
(dp343
s(I22
I17
tp344
(dp345
s(I20
I1
tp346
(dp347
s(I18
I17
tp348
(dp349
s(I23
I20
tp350
(dp351
s(I21
I4
tp352
(dp353
s(I8
I7
tp354
(dp355
s(I22
I11
tp356
(dp357
s(I9
I6
tp358
(dp359
s(I14
I29
tp360
(dp361
s(I10
I5
tp362
(dp363
s(I15
I24
tp364
(dp365
s(I11
I8
tp366
(dp367
s(I0
I19
tp368
(dp369
s(I24
I16
tp370
(dp371
s(I14
I7
tp372
(dp373
s(I12
I19
tp374
(dp375
s(I1
I18
tp376
(dp377
s(I25
I13
tp378
(dp379
s(I15
I6
tp380
(dp381
s(I13
I18
tp382
(dp383
s(I2
I25
tp384
(dp385
s(I26
I10
tp386
(dp387
s(I0
I9
tp388
(dp389
s(I3
I4
tp390
(dp391
s(I27
I3
tp392
(dp393
s(I30
I12
tp394
(dp395
s(I4
I7
tp396
(dp397
s(I28
I4
tp398
(dp399
s(I31
I9
tp400
(dp401
s(I5
I6
tp402
(dp403
s(I29
I9
tp404
(dp405
s(I16
I2
tp406
(dp407
s(I6
I21
tp408
(dp409
s(I30
I22
tp410
(dp411
s(I19
I15
tp412
(dp413
s(I17
I3
tp414
(dp415
s(I7
I16
tp416
(dp417
s(I31
I23
tp418
(dp419
s(I20
I8
tp420
(dp421
s(I18
I8
tp422
(dp423
s(I16
I24
tp424
(dp425
s(I21
I13
tp426
(dp427
s(I8
I14
tp428
(dp429
s(I22
I2
tp430
(dp431
s(I9
I15
tp432
(dp433
s(I23
I11
tp434
(dp435
s(I10
I12
tp436
(dp437
s(I8
I20
tp438
(dp439
s(I11
I1
tp440
(dp441
s(I9
I17
tp442
(dp443
s(I24
I23
tp444
(dp445
s(I14
I14
tp446
(dp447
s(I12
I10
tp448
(dp449
s(I10
I22
tp450
(dp451
s(I25
I22
tp452
(dp453
s(I15
I15
tp454
(dp455
s(I13
I11
tp456
(dp457
s(I2
I16
tp458
(dp459
s(I26
I21
tp460
(dp461
s(I0
I0
tp462
(dp463
s(I3
I13
tp464
(dp465
s(I27
I24
tp466
(dp467
s(I1
I13
tp468
(dp469
s(I4
I14
tp470
(dp471
s(I28
I3
tp472
(dp473
s(I2
I10
tp474
(dp475
s(I5
I15
tp476
(dp477
s(I29
I2
tp478
(dp479
s(I3
I19
tp480
(dp481
s(I6
I12
tp482
(dp483
s(I30
I25
tp484
(dp485
s(I4
I20
tp486
(dp487
s(I19
I20
tp488
(dp489
s(I17
I4
tp490
(dp491
s(I7
I9
tp492
(dp493
s(I31
I28
tp494
(dp495
s(I20
I23
tp496
(dp497
s(I18
I3
tp498
(dp499
s(I16
I31
tp500
(dp501
s(I21
I22
tp502
(dp503
s(I17
I30
tp504
(dp505
s(I22
I5
tp506
(dp507
s(I18
I29
tp508
(dp509
s(I23
I0
tp510
(dp511
s(I8
I27
tp512
(dp513
s(I11
I6
tp514
(dp515
s(I9
I26
tp516
(dp517
s(I24
I30
tp518
(dp519
s(I14
I17
tp520
(dp521
s(I12
I1
tp522
(dp523
s(I10
I17
tp524
(dp525
s(I25
I31
tp526
(dp527
s(I15
I20
tp528
(dp529
s(I13
I4
tp530
(dp531
s(I11
I28
tp532
(dp533
s(I26
I28
tp534
(dp535
s(I0
I7
tp536
(dp537
s(I24
I4
tp538
(dp539
s(I12
I31
tp540
(dp541
s(I27
I17
tp542
(dp543
s(I1
I6
tp544
(dp545
s(I25
I1
tp546
(dp547
s(I13
I30
tp548
(dp549
s(I28
I26
tp550
(dp551
s(I2
I5
tp552
(dp553
s(I26
I6
tp554
(dp555
s(I5
I8
tp556
(dp557
s(I29
I27
tp558
(dp559
s(I3
I24
tp560
(dp561
s(I6
I7
tp562
(dp563
s(I30
I0
tp564
(dp565
s(I4
I19
tp566
(dp567
s(I19
I29
tp568
(dp569
s(I7
I6
tp570
(dp571
s(I31
I5
tp572
(dp573
s(I5
I18
tp574
(dp575
s(I20
I30
tp576
(dp577
s(I16
I22
tp578
(dp579
s(I6
I25
tp580
(dp581
s(I21
I31
tp582
(dp583
s(I19
I3
tp584
(dp585
s(I17
I23
tp586
(dp587
s(I7
I28
tp588
(dp589
s(I22
I28
tp590
(dp591
s(I20
I4
tp592
(dp593
s(I18
I20
tp594
(dp595
s(I23
I25
tp596
(dp597
s(I8
I2
tp598
(dp599
s(I9
I3
tp600
(dp601
s(I14
I24
tp602
(dp603
s(I10
I24
tp604
(dp605
s(I15
I29
tp606
(dp607
s(I11
I21
tp608
(dp609
s(I0
I30
tp610
(dp611
s(I24
I11
tp612
(dp613
s(I14
I2
tp614
(dp615
s(I12
I22
tp616
(dp617
s(I27
I22
tp618
(dp619
s(I1
I31
tp620
(dp621
s(I25
I10
tp622
(dp623
s(I13
I23
tp624
(dp625
s(I28
I17
tp626
(dp627
s(I2
I28
tp628
(dp629
s(I26
I1
tp630
(dp631
s(I29
I20
tp632
(dp633
s(I3
I1
tp634
(dp635
s(I27
I12
tp636
(dp637
s(I30
I11
tp638
(dp639
s(I4
I26
tp640
(dp641
s(I28
I15
tp642
(dp643
s(I31
I2
tp644
(dp645
s(I5
I27
tp646
(dp647
s(I29
I14
tp648
(dp649
s(I16
I13
tp650
(dp651
s(I6
I16
tp652
(dp653
s(I21
I24
tp654
(dp655
s(I19
I8
tp656
(dp657
s(I17
I8
tp658
(dp659
s(I7
I21
tp660
(dp661
s(I22
I23
tp662
(dp663
s(I20
I3
tp664
(dp665
s(I18
I15
tp666
(dp667
s(I23
I22
tp668
(dp669
s(I21
I2
tp670
(dp671
s(I8
I9
tp672
(dp673
s(I22
I9
tp674
(dp675
s(I9
I4
tp676
(dp677
s(I23
I12
tp678
(dp679
s(I10
I3
tp680
(dp681
s(I15
I26
tp682
(dp683
s(I11
I10
tp684
(dp685
s(I0
I21
tp686
(dp687
s(I24
I18
tp688
(dp689
s(I14
I5
tp690
(dp691
s(I12
I13
tp692
(dp693
s(I1
I16
tp694
(dp695
s(I25
I19
tp696
(dp697
s(I15
I0
tp698
(dp699
s(I13
I16
tp700
(dp701
s(I2
I23
tp702
(dp703
s(I26
I8
tp704
(dp705
s(I0
I11
tp706
(dp707
s(I3
I6
tp708
(dp709
s(I27
I5
tp710
(dp711
s(I1
I10
tp712
(dp713
s(I4
I1
tp714
(dp715
s(I28
I6
tp716
(dp717
s(I31
I11
tp718
(dp719
s(I5
I4
tp720
(dp721
s(I29
I7
tp722
(dp723
s(I16
I4
tp724
(dp725
s(I6
I11
tp726
(dp727
s(I30
I20
tp728
(dp729
s(I19
I17
tp730
(dp731
s(I17
I1
tp732
(dp733
s(I7
I18
tp734
(dp735
s(I31
I17
tp736
(dp737
s(I20
I10
tp738
(dp739
s(I18
I6
tp740
(dp741
s(I16
I26
tp742
(dp743
s(I21
I11
tp744
(dp745
s(I17
I27
tp746
(dp747
s(I22
I0
tp748
(dp749
s(I9
I13
tp750
(dp751
s(I23
I5
tp752
(dp753
s(I10
I10
tp754
(dp755
s(I8
I22
tp756
(dp757
s(I11
I3
tp758
(dp759
s(I9
I23
tp760
(dp761
s(I24
I25
tp762
(dp763
s(I14
I12
tp764
(dp765
s(I12
I4
tp766
(dp767
s(I10
I20
tp768
(dp769
s(I25
I20
tp770
(dp771
s(I15
I9
tp772
(dp773
s(I13
I9
tp774
(dp775
s(I11
I25
tp776
(dp777
s(I26
I19
tp778
(dp779
s(I0
I2
tp780
(dp781
s(I3
I15
tp782
(dp783
s(I27
I26
tp784
(dp785
s(I1
I3
tp786
(dp787
s(I4
I8
tp788
(dp789
s(I28
I29
tp790
(dp791
s(I2
I8
tp792
(dp793
s(I5
I13
tp794
(dp795
s(I29
I0
tp796
(dp797
s(I3
I21
tp798
(dp799
s(I6
I2
tp800
(dp801
s(I30
I31
tp802
(dp803
s(I4
I22
tp804
(dp805
s(I19
I22
tp806
(dp807
s(I7
I11
tp808
(dp809
s(I31
I30
tp810
(dp811
s(I5
I23
tp812
(dp813
s(I20
I17
tp814
(dp815
s(I18
I1
tp816
(dp817
s(I16
I17
tp818
(dp819
s(I21
I20
tp820
(dp821
s(I17
I28
tp822
(dp823
s(I22
I27
tp824
(dp825
s(I18
I27
tp826
(dp827
s(I23
I2
tp828
(dp829
s(I8
I29
tp830
(dp831
s(I9
I24
tp832
(dp833
s(I14
I23
tp834
(dp835
s(I12
I3
tp836
(dp837
s(I10
I31
tp838
(dp839
s(I25
I29
tp840
(dp841
s(I15
I22
tp842
(dp843
s(I13
I2
tp844
(dp845
s(I11
I30
tp846
(dp847
s(I26
I26
tp848
(dp849
s(I0
I25
tp850
(dp851
s(I24
I6
tp852
(dp853
s(I12
I25
tp854
(dp855
s(I27
I19
tp856
(dp857
s(I1
I4
tp858
(dp859
s(I25
I7
tp860
(dp861
s(I13
I28
tp862
(dp863
s(I28
I20
tp864
(dp865
s(I2
I3
tp866
(dp867
s(I26
I4
tp868
(dp869
s(I29
I25
tp870
(dp871
s(I3
I26
tp872
(dp873
s(I27
I9
tp874
(dp875
s(I6
I5
tp876
(dp877
s(I30
I6
tp878
(dp879
s(I4
I29
tp880
(dp881
s(I19
I31
tp882
(dp883
s(I7
I0
tp884
(dp885
s(I31
I7
tp886
(dp887
s(I5
I16
tp888
(dp889
s(I20
I24
tp890
(dp891
s(I16
I8
tp892
(dp893
s(I6
I31
tp894
(dp895
s(I21
I29
tp896
(dp897
s(I19
I5
tp898
(dp899
s(I17
I21
tp900
(dp901
s(I7
I30
tp902
(dp903
s(I22
I18
tp904
(dp905
s(I20
I6
tp906
(dp907
s(I18
I18
tp908
(dp909
s(I23
I27
tp910
(dp911
s(I21
I7
tp912
(dp913
s(I8
I4
tp914
(dp915
s(I9
I1
tp916
(dp917
s(I14
I30
tp918
(dp919
s(I10
I6
tp920
(dp921
s(I15
I31
tp922
(dp923
s(I11
I23
tp924
(dp925
s(I0
I16
tp926
(dp927
s(I24
I13
tp928
(dp929
s(I14
I0
tp930
(dp931
s(I12
I16
tp932
(dp933
s(I1
I29
tp934
(dp935
s(I25
I8
tp936
(dp937
s(I15
I5
tp938
(dp939
s(I13
I21
tp940
(dp941
s(I28
I19
tp942
(dp943
s(I2
I26
tp944
(dp945
s(I26
I15
tp946
(dp947
s(I29
I18
tp948
(dp949
s(I3
I3
tp950
(dp951
s(I27
I14
tp952
(dp953
s(I30
I9
tp954
(dp955
s(I4
I4
tp956
(dp957
s(I28
I9
tp958
(dp959
s(I31
I12
tp960
(dp961
s(I5
I25
tp962
(dp963
s(I29
I12
tp964
(dp965
s(I16
I15
tp966
(dp967
s(I6
I22
tp968
(dp969
s(I30
I19
tp970
(dp971
s(I19
I10
tp972
(dp973
s(I17
I14
tp974
(dp975
s(I7
I23
tp976
(dp977
s(I22
I21
tp978
(dp979
s(I20
I13
tp980
(dp981
s(I18
I13
tp982
(dp983
s(I23
I16
tp984
(dp985
s(I21
I0
tp986
(dp987
s(I8
I11
tp988
(dp989
s(I22
I15
tp990
(dp991
s(I9
I10
tp992
(dp993
s(I23
I14
tp994
(dp995
s(I10
I1
tp996
(dp997
s(I8
I17
tp998
(dp999
s(I11
I12
tp1000
(dp1001
s(I0
I23
tp1002
(dp1003
s(I24
I20
tp1004
(dp1005
s(I14
I11
tp1006
(dp1007
s(I12
I15
tp1008
(dp1009
s(I1
I22
tp1010
(dp1011
s(I25
I17
tp1012
(dp1013
s(I15
I2
tp1014
(dp1015
s(I13
I14
tp1016
(dp1017
s(I2
I21
tp1018
(dp1019
s(I26
I22
tp1020
(dp1021
s(I0
I13
tp1022
(dp1023
s(I3
I8
tp1024
(dp1025
s(I27
I7
tp1026
(dp1027
s(I1
I8
tp1028
(dp1029
s(I4
I3
tp1030
(dp1031
s(I28
I0
tp1032
(dp1033
s(I2
I15
tp1034
(dp1035
s(I5
I2
tp1036
(dp1037
s(I29
I5
tp1038
(dp1039
s(I16
I6
tp1040
(dp1041
s(I6
I9
tp1042
(dp1043
s(I30
I26
tp1044
(dp1045
s(I19
I19
tp1046
(dp1047
s(I17
I7
tp1048
(dp1049
s(I7
I12
tp1050
(dp1051
s(I31
I19
tp1052
(dp1053
s(I20
I20
tp1054
(dp1055
s(I18
I4
tp1056
(dp1057
s(I16
I28
tp1058
(dp1059
s(I21
I9
tp1060
(dp1061
s(I17
I25
tp1062
(dp1063
s(I22
I6
tp1064
(dp1065
s(I18
I30
tp1066
(dp1067
s(I23
I7
tp1068
(dp1069
s(I10
I8
tp1070
(dp1071
s(I8
I24
tp1072
(dp1073
s(I11
I5
tp1074
(dp1075
s(I9
I21
tp1076
(dp1077
s(I24
I27
tp1078
(dp1079
s(I14
I18
tp1080
(dp1081
s(I12
I6
tp1082
(dp1083
s(I10
I18
tp1084
(dp1085
s(I25
I26
tp1086
(dp1087
s(I15
I11
tp1088
(dp1089
s(I13
I7
tp1090
(dp1091
s(I11
I27
tp1092
(dp1093
s(I26
I17
tp1094
(dp1095
s(I0
I4
tp1096
(dp1097
s(I24
I1
tp1098
(dp1099
s(I12
I28
tp1100
(dp1101
s(I27
I28
tp1102
(dp1103
s(I1
I1
tp1104
(dp1105
s(I4
I10
tp1106
(dp1107
s(I28
I31
tp1108
(dp1109
s(I2
I6
tp1110
(dp1111
s(I5
I11
tp1112
(dp1113
s(I29
I30
tp1114
(dp1115
s(I3
I23
tp1116
(dp1117
s(I6
I0
tp1118
(dp1119
s(I30
I29
tp1120
(dp1121
s(I4
I16
tp1122
(dp1123
s(I19
I24
tp1124
(dp1125
s(I7
I5
tp1126
(dp1127
s(I31
I24
tp1128
(dp1129
s(I5
I21
tp1130
(dp1131
s(I20
I19
tp1132
(dp1133
s(I16
I19
tp1134
(dp1135
s(I6
I26
tp1136
(dp1137
s(I21
I18
tp1138
(dp1139
s(I17
I18
tp1140
(dp1141
s(I22
I25
tp1142
(dp1143
s(I18
I25
tp1144
(dp1145
s(I23
I28
tp1146
(dp1147
s(I8
I31
tp1148
(dp1149
s(I9
I30
tp1150
(dp1151
s(I14
I21
tp1152
(dp1153
s(I10
I29
tp1154
(dp1155
s(I15
I16
tp1156
(dp1157
s(I13
I0
tp1158
(dp1159
s(I11
I16
tp1160
(dp1161
s(I26
I24
tp1162
(dp1163
s(I0
I27
tp1164
(dp1165
s(I24
I8
tp1166
(dp1167
s(I12
I27
tp1168
(dp1169
s(I27
I21
tp1170
(dp1171
s(I1
I26
tp1172
(dp1173
s(I25
I5
tp1174
(dp1175
s(I13
I26
tp1176
(dp1177
s(I28
I22
tp1178
(dp1179
s(I2
I1
tp1180
(dp1181
s(I26
I2
tp1182
(dp1183
s(I29
I23
tp1184
(dp1185
s(I3
I28
tp1186
(dp1187
s(I27
I11
tp1188
(dp1189
s(I30
I4
tp1190
(dp1191
s(I4
I31
tp1192
(dp1193
s(I28
I12
tp1194
(dp1195
s(I7
I2
tp1196
(dp1197
s(I31
I1
tp1198
(dp1199
s(I5
I30
tp1200
(dp1201
s(I20
I26
tp1202
(dp1203
s(I16
I10
tp1204
(dp1205
s(I6
I29
tp1206
(dp1207
s(I21
I27
tp1208
(dp1209
s(I19
I7
tp1210
(dp1211
s(I17
I11
tp1212
(dp1213
s(I7
I24
tp1214
(dp1215
s(I22
I16
tp1216
(dp1217
s(I20
I0
tp1218
(dp1219
s(I18
I16
tp1220
(dp1221
s(I23
I21
tp1222
(dp1223
s(I21
I5
tp1224
(dp1225
s(I8
I6
tp1226
(dp1227
s(I22
I10
tp1228
(dp1229
s(I9
I7
tp1230
(dp1231
s(I14
I28
tp1232
(dp1233
s(I10
I4
tp1234
(dp1235
s(I15
I25
tp1236
(dp1237
s(I11
I9
tp1238
(dp1239
s(I0
I18
tp1240
(dp1241
s(I24
I15
tp1242
(dp1243
s(I14
I6
tp1244
(dp1245
s(I12
I18
tp1246
(dp1247
s(I1
I19
tp1248
(dp1249
s(I25
I14
tp1250
(dp1251
s(I15
I7
tp1252
(dp1253
s(I13
I19
tp1254
(dp1255
s(I2
I24
tp1256
(dp1257
s(I26
I13
tp1258
(dp1259
s(I0
I8
tp1260
(dp1261
s(I29
I16
tp1262
(dp1263
s(I3
I5
tp1264
(dp1265
s(I27
I0
tp1266
(dp1267
s(I30
I15
tp1268
(dp1269
s(I4
I6
tp1270
(dp1271
s(I28
I11
tp1272
(dp1273
s(I31
I14
tp1274
(dp1275
s(I5
I7
tp1276
(dp1277
s(I29
I10
tp1278
(dp1279
s(I16
I1
tp1280
(dp1281
s(I6
I20
tp1282
(dp1283
s(I30
I17
tp1284
(dp1285
s(I19
I12
tp1286
(dp1287
s(I17
I12
tp1288
(dp1289
s(I7
I17
tp1290
(dp1291
s(I31
I20
tp1292
(dp1293
s(I20
I15
tp1294
(dp1295
s(I18
I11
tp1296
(dp1297
s(I23
I18
tp1298
(dp1299
s(I21
I14
tp1300
(dp1301
s(I8
I13
tp1302
(dp1303
s(I22
I13
tp1304
(dp1305
s(I9
I8
tp1306
(dp1307
s(I23
I8
tp1308
(dp1309
s(I10
I15
tp1310
(dp1311
s(I8
I19
tp1312
(dp1313
s(I11
I14
tp1314
(dp1315
s(I9
I18
tp1316
(dp1317
s(I24
I22
tp1318
(dp1319
s(I14
I9
tp1320
(dp1321
s(I12
I9
tp1322
(dp1323
s(I1
I20
tp1324
(dp1325
s(I25
I23
tp1326
(dp1327
s(I15
I12
tp1328
(dp1329
s(I13
I12
tp1330
(dp1331
s(I2
I19
tp1332
(dp1333
s(I26
I20
tp1334
(dp1335
s(I0
I15
tp1336
(dp1337
s(I3
I10
tp1338
(dp1339
s(I27
I25
tp1340
(dp1341
s(I1
I14
tp1342
(dp1343
s(I4
I13
tp1344
(dp1345
s(I28
I2
tp1346
(dp1347
s(I2
I13
tp1348
(dp1349
s(I5
I0
tp1350
(dp1351
s(I29
I3
tp1352
(dp1353
s(I3
I16
tp1354
(dp1355
s(I6
I15
tp1356
(dp1357
s(I30
I24
tp1358
(dp1359
s(I19
I21
tp1360
(dp1361
s(I17
I5
tp1362
(dp1363
s(I7
I14
tp1364
(dp1365
s(I31
I29
tp1366
(dp1367
s(I20
I22
tp1368
(dp1369
s(I18
I2
tp1370
(dp1371
s(I16
I30
tp1372
(dp1373
s(I21
I23
tp1374
(dp1375
s(I17
I31
tp1376
(dp1377
s(I22
I4
tp1378
(dp1379
s(I18
I28
tp1380
(dp1381
s(I23
I1
tp1382
(dp1383
s(I8
I26
tp1384
(dp1385
s(I11
I7
tp1386
(dp1387
s(I9
I27
tp1388
(dp1389
s(I24
I29
tp1390
(dp1391
s(I14
I16
tp1392
(dp1393
s(I12
I0
tp1394
(dp1395
s(I10
I16
tp1396
(dp1397
s(I25
I24
tp1398
(dp1399
s(I15
I21
tp1400
(dp1401
s(I13
I5
tp1402
(dp1403
s(I11
I29
tp1404
(dp1405
s(I26
I31
tp1406
(dp1407
s(I0
I6
tp1408
(dp1409
s(I24
I3
tp1410
(dp1411
s(I12
I30
tp1412
(dp1413
s(I27
I30
tp1414
(dp1415
s(I1
I7
tp1416
(dp1417
s(I25
I2
tp1418
(dp1419
s(I13
I31
tp1420
(dp1421
s(I28
I25
tp1422
(dp1423
s(I2
I4
tp1424
(dp1425
s(I5
I9
tp1426
(dp1427
s(I29
I28
tp1428
(dp1429
s(I3
I25
tp1430
(dp1431
s(I6
I6
tp1432
(dp1433
s(I30
I3
tp1434
(dp1435
s(I4
I18
tp1436
(dp1437
s(I19
I26
tp1438
(dp1439
s(I7
I7
tp1440
(dp1441
s(I31
I26
tp1442
(dp1443
s(I5
I19
tp1444
(dp1445
s(I20
I29
tp1446
(dp1447
s(I16
I21
tp1448
(dp1449
s(I6
I24
tp1450
(dp1451
s(I21
I16
tp1452
(dp1453
s(I19
I0
tp1454
(dp1455
s(I17
I16
tp1456
(dp1457
s(I7
I29
tp1458
(dp1459
s(I22
I31
tp1460
(dp1461
s(I18
I23
tp1462
(dp1463
s(I23
I30
tp1464
(dp1465
s(I8
I1
tp1466
(dp1467
s(I9
I28
tp1468
(dp1469
s(I14
I27
tp1470
(dp1471
s(I10
I27
tp1472
(dp1473
s(I15
I18
tp1474
(dp1475
s(I11
I18
tp1476
(dp1477
s(I0
I29
tp1478
(dp1479
s(I24
I10
tp1480
(dp1481
s(I12
I21
tp1482
(dp1483
s(I27
I23
tp1484
(dp1485
s(I1
I24
tp1486
(dp1487
s(I25
I11
tp1488
(dp1489
s(I13
I24
tp1490
(dp1491
s(I28
I16
tp1492
(dp1493
s(I2
I31
tp1494
(dp1495
s(I26
I0
tp1496
(dp1497
s(I29
I21
tp1498
(dp1499
s(I3
I30
tp1500
(dp1501
s(I27
I13
tp1502
(dp1503
s(I30
I10
tp1504
(dp1505
s(I4
I25
tp1506
(dp1507
s(I28
I14
tp1508
(dp1509
s(I31
I3
tp1510
(dp1511
s(I5
I28
tp1512
(dp1513
s(I29
I15
tp1514
(dp1515
s(I16
I12
tp1516
(dp1517
s(I6
I19
tp1518
(dp1519
s(I21
I25
tp1520
(dp1521
s(I19
I9
tp1522
(dp1523
s(I17
I9
tp1524
(dp1525
s(I7
I26
tp1526
(dp1527
s(I22
I22
tp1528
(dp1529
s(I20
I2
tp1530
(dp1531
s(I18
I14
tp1532
(dp1533
s(I23
I23
tp1534
(dp1535
s(I21
I3
tp1536
(dp1537
s(I8
I8
tp1538
(dp1539
s(I22
I8
tp1540
(dp1541
s(I9
I5
tp1542
(dp1543
s(I23
I13
tp1544
(dp1545
s(I10
I2
tp1546
(dp1547
s(I15
I27
tp1548
(dp1549
s(I11
I11
tp1550
(dp1551
s(I0
I20
tp1552
(dp1553
s(I24
I17
tp1554
(dp1555
s(I14
I4
tp1556
(dp1557
s(I12
I12
tp1558
(dp1559
s(I1
I17
tp1560
(dp1561
s(I25
I12
tp1562
(dp1563
s(I15
I1
tp1564
(dp1565
s(I13
I17
tp1566
(dp1567
s(I2
I22
tp1568
(dp1569
s(I26
I11
tp1570
(dp1571
s(I0
I10
tp1572
(dp1573
s(I3
I7
tp1574
(dp1575
s(I27
I2
tp1576
(dp1577
s(I1
I11
tp1578
(dp1579
s(I30
I13
tp1580
(dp1581
s(I4
I0
tp1582
(dp1583
s(I28
I5
tp1584
(dp1585
s(I31
I8
tp1586
(dp1587
s(I5
I5
tp1588
(dp1589
s(I29
I8
tp1590
(dp1591
s(I16
I3
tp1592
(dp1593
s(I6
I10
tp1594
(dp1595
s(I30
I23
tp1596
(dp1597
s(I19
I14
tp1598
(dp1599
s(I17
I2
tp1600
(dp1601
s(I7
I19
tp1602
(dp1603
s(I31
I22
tp1604
(dp1605
s(I20
I9
tp1606
(dp1607
s(I18
I9
tp1608
(dp1609
s(I16
I25
tp1610
(dp1611
s(I21
I12
tp1612
(dp1613
s(I8
I15
tp1614
(dp1615
s(I22
I3
tp1616
(dp1617
s(I9
I14
tp1618
(dp1619
s(I23
I10
tp1620
(dp1621
s(I10
I13
tp1622
(dp1623
s(I8
I21
tp1624
(dp1625
s(I11
I0
tp1626
(dp1627
s(I9
I16
tp1628
(dp1629
s(I24
I24
tp1630
(dp1631
s(I14
I15
tp1632
(dp1633
s(I12
I11
tp1634
(dp1635
s(I10
I23
tp1636
(dp1637
s(I25
I21
tp1638
(dp1639
s(I15
I14
tp1640
(dp1641
s(I13
I10
tp1642
(dp1643
s(I2
I17
tp1644
(dp1645
s(I26
I18
tp1646
(dp1647
s(I0
I1
tp1648
(dp1649
s(I3
I12
tp1650
(dp1651
s(I27
I27
tp1652
(dp1653
s(I1
I12
tp1654
(dp1655
s(I4
I15
tp1656
(dp1657
s(I28
I28
tp1658
(dp1659
s(I2
I11
tp1660
(dp1661
s(I5
I14
tp1662
(dp1663
s(I29
I1
tp1664
(dp1665
s(I3
I18
tp1666
(dp1667
s(I6
I13
tp1668
(dp1669
s(I30
I30
tp1670
(dp1671
s(I4
I21
tp1672
(dp1673
s(I19
I23
tp1674
(dp1675
s(I7
I8
tp1676
(dp1677
s(I31
I31
tp1678
(dp1679
s(I20
I16
tp1680
(dp1681
s(I18
I0
tp1682
(dp1683
s(I16
I16
tp1684
(dp1685
s(I21
I21
tp1686
(dp1687
s(I17
I29
tp1688
(dp1689
s(I22
I26
tp1690
(dp1691
s(I18
I26
tp1692
(dp1693
s(I23
I3
tp1694
(dp1695
s(I8
I28
tp1696
(dp1697
s(I9
I25
tp1698
(dp1699
s(I24
I31
tp1700
(dp1701
s(I14
I22
tp1702
(dp1703
s(I12
I2
tp1704
(dp1705
s(I10
I30
tp1706
(dp1707
s(I25
I30
tp1708
(dp1709
s(I15
I23
tp1710
(dp1711
s(I13
I3
tp1712
(dp1713
s(I11
I31
tp1714
(dp1715
s(I26
I29
tp1716
(dp1717
s(I0
I24
tp1718
(dp1719
s(I24
I5
tp1720
(dp1721
s(I12
I24
tp1722
(dp1723
s(I27
I16
tp1724
(dp1725
s(I1
I5
tp1726
(dp1727
s(I25
I0
tp1728
(dp1729
s(I13
I29
tp1730
(dp1731
s(I28
I27
tp1732
(dp1733
s(I2
I2
tp1734
(dp1735
s(I26
I7
tp1736
(dp1737
s(I29
I26
tp1738
(dp1739
s(I3
I27
tp1740
(dp1741
s(I6
I4
tp1742
(dp1743
s(I30
I1
tp1744
(dp1745
s(I4
I28
tp1746
(dp1747
s(I19
I28
tp1748
(dp1749
s(I7
I1
tp1750
(dp1751
s(I31
I4
tp1752
(dp1753
s(I5
I17
tp1754
(dp1755
s(I20
I31
tp1756
(dp1757
s(I16
I23
tp1758
(dp1759
s(I6
I30
tp1760
(dp1761
s(I21
I30
tp1762
(dp1763
s(I19
I2
tp1764
(dp1765
s(I17
I22
tp1766
(dp1767
s(I7
I31
tp1768
(dp1769
s(I22
I29
tp1770
(dp1771
s(I20
I5
tp1772
(dp1773
s(I18
I21
tp1774
(dp1775
s(I23
I24
tp1776
(dp1777
s(I8
I3
tp1778
(dp1779
s(I9
I2
tp1780
(dp1781
s(I14
I25
tp1782
(dp1783
s(I10
I25
tp1784
(dp1785
s(I15
I28
tp1786
(dp1787
s(I11
I20
tp1788
(dp1789
s(I0
I31
tp1790
(dp1791
s(I24
I12
tp1792
(dp1793
s(I14
I3
tp1794
(dp1795
s(I12
I23
tp1796
(dp1797
s(I1
I30
tp1798
(dp1799
s(I25
I9
tp1800
(dp1801
s(I13
I22
tp1802
(dp1803
s(I28
I18
tp1804
(dp1805
s(I2
I29
tp1806
(dp1807
s(I26
I14
tp1808
(dp1809
s(I29
I19
tp1810
(dp1811
s(I3
I0
tp1812
(dp1813
s(I27
I15
tp1814
(dp1815
s(I30
I8
tp1816
(dp1817
s(I4
I27
tp1818
(dp1819
s(I28
I8
tp1820
(dp1821
s(I31
I13
tp1822
(dp1823
s(I5
I26
tp1824
(dp1825
s(I29
I13
tp1826
(dp1827
s(I16
I14
tp1828
(dp1829
s(I6
I17
tp1830
(dp1831
s(I30
I18
tp1832
(dp1833
s(I19
I11
tp1834
(dp1835
s(I17
I15
tp1836
(dp1837
s(I7
I20
tp1838
(dp1839
s(I22
I20
tp1840
(dp1841
s(I20
I12
tp1842
(dp1843
s(I18
I12
tp1844
(dp1845
s(I23
I17
tp1846
(dp1847
s(I21
I1
tp1848
(dp1849
s(I8
I10
tp1850
(dp1851
s(I22
I14
tp1852
(dp1853
s(I9
I11
tp1854
(dp1855
s(I23
I15
tp1856
(dp1857
s(I10
I0
tp1858
(dp1859
s(I8
I16
tp1860
(dp1861
s(I11
I13
tp1862
(dp1863
s(I0
I22
tp1864
(dp1865
s(I24
I19
tp1866
(dp1867
s(I14
I10
tp1868
(dp1869
s(I12
I14
tp1870
(dp1871
s(I1
I23
tp1872
(dp1873
s(I25
I18
tp1874
(dp1875
s(I15
I3
tp1876
(dp1877
s(I13
I15
tp1878
(dp1879
s(I2
I20
tp1880
(dp1881
s(I26
I9
tp1882
(dp1883
s(I0
I12
tp1884
(dp1885
s(I3
I9
tp1886
(dp1887
s(I27
I4
tp1888
(dp1889
s(I1
I9
tp1890
(dp1891
s(I4
I2
tp1892
(dp1893
s(I28
I7
tp1894
(dp1895
s(I2
I14
tp1896
(dp1897
s(I31
I10
tp1898
(dp1899
s(I5
I3
tp1900
(dp1901
s(I29
I6
tp1902
(dp1903
s(I16
I5
tp1904
(dp1905
s(I6
I8
tp1906
(dp1907
s(I30
I21
tp1908
(dp1909
s(I19
I16
tp1910
(dp1911
s(I17
I0
tp1912
(dp1913
s(I7
I13
tp1914
(dp1915
s(I31
I16
tp1916
(dp1917
s(I20
I11
tp1918
(dp1919
s(I18
I7
tp1920
(dp1921
s(I16
I27
tp1922
(dp1923
s(I21
I10
tp1924
(dp1925
s(I17
I26
tp1926
(dp1927
s(I22
I1
tp1928
(dp1929
s(I9
I12
tp1930
(dp1931
s(I23
I4
tp1932
(dp1933
s(I10
I11
tp1934
(dp1935
s(I8
I23
tp1936
(dp1937
s(I11
I2
tp1938
(dp1939
s(I9
I22
tp1940
(dp1941
s(I24
I26
tp1942
(dp1943
s(I14
I13
tp1944
(dp1945
s(I12
I5
tp1946
(dp1947
s(I10
I21
tp1948
(dp1949
s(I25
I27
tp1950
(dp1951
s(I15
I8
tp1952
(dp1953
s(I13
I8
tp1954
(dp1955
s(I11
I24
tp1956
(dp1957
s(I26
I16
tp1958
(dp1959
s(I0
I3
tp1960
(dp1961
s(I24
I0
tp1962
(dp1963
s(I3
I14
tp1964
(dp1965
s(I27
I29
tp1966
(dp1967
s(I1
I2
tp1968
(dp1969
s(I4
I9
tp1970
(dp1971
s(I28
I30
tp1972
(dp1973
s(I2
I9
tp1974
(dp1975
s(I5
I12
tp1976
(dp1977
s(I29
I31
tp1978
(dp1979
s(I3
I20
tp1980
(dp1981
s(I6
I3
tp1982
(dp1983
s(I30
I28
tp1984
(dp1985
s(I4
I23
tp1986
(dp1987
s(I19
I25
tp1988
(dp1989
s(I7
I10
tp1990
(dp1991
s(I31
I25
tp1992
(dp1993
s(I5
I22
tp1994
(dp1995
s(I20
I18
tp1996
(dp1997
s(I16
I18
tp1998
(dp1999
s(I21
I19
tp2000
(dp2001
s(I17
I19
tp2002
(dp2003
s(I22
I24
tp2004
(dp2005
s(I18
I24
tp2006
(dp2007
s(I23
I29
tp2008
(dp2009
s(I8
I30
tp2010
(dp2011
s(I9
I31
tp2012
(dp2013
s(I14
I20
tp2014
(dp2015
s(I10
I28
tp2016
(dp2017
s(I25
I28
tp2018
(dp2019
s(I15
I17
tp2020
(dp2021
s(I13
I1
tp2022
(dp2023
s(I11
I17
tp2024
(dp2025
s(I26
I27
tp2026
(dp2027
s(I0
I26
tp2028
(dp2029
s(I24
I7
tp2030
(dp2031
s(I12
I26
tp2032
(dp2033
s(I27
I18
tp2034
(dp2035
s(I1
I27
tp2036
(dp2037
s(I25
I6
tp2038
(dp2039
s(I13
I27
tp2040
(dp2041
s(I28
I21
tp2042
(dp2043
s(I2
I0
tp2044
(dp2045
s(I26
I5
tp2046
(dp2047
s(I29
I24
tp2048
(dp2049
s(I3
I29
tp2050
(dp2051
s(I27
I8
tp2052
(dp2053
s(I30
I7
tp2054
(dp2055
s(I4
I30
tp2056
(dp2057
s(I19
I30
tp2058
(dp2059
ssS'graph'
p2060
(dp2061
sS'edge'
p2062
(dp2063
g12
(dp2064
(I15
I16
tp2065
(dp2066
s(I20
I11
tp2067
(dp2068
ssg14
(dp2069
(I23
I19
tp2070
(dp2071
s(I18
I14
tp2072
(dp2073
ssg16
(dp2074
(I18
I23
tp2075
(dp2076
s(I13
I18
tp2077
(dp2078
ssg18
(dp2079
(I12
I12
tp2080
(dp2081
s(I28
I12
tp2082
(dp2083
s(I7
I17
tp2084
(dp2085
ssg20
(dp2086
(I29
I17
tp2087
(dp2088
s(I8
I22
tp2089
(dp2090
s(I3
I1
tp2091
(dp2092
s(I29
I1
tp2093
(dp2094
s(I24
I22
tp2095
(dp2096
s(I3
I17
tp2097
(dp2098
ssg22
(dp2099
(I19
I20
tp2100
(dp2101
s(I14
I15
tp2102
(dp2103
ssg24
(dp2104
(I13
I15
tp2105
(dp2106
s(I29
I15
tp2107
(dp2108
s(I8
I20
tp2109
(dp2110
ssg26
(dp2111
(I27
I17
tp2112
(dp2113
s(I6
I12
tp2114
(dp2115
s(I11
I17
tp2116
(dp2117
ssg28
(dp2118
(I30
I12
tp2119
(dp2120
s(I4
I28
tp2121
(dp2122
s(I25
I7
tp2123
(dp2124
s(I30
I28
tp2125
(dp2126
s(I4
I12
tp2127
(dp2128
s(I9
I7
tp2129
(dp2130
ssg30
(dp2131
(I15
I12
tp2132
(dp2133
s(I20
I17
tp2134
(dp2135
ssg32
(dp2136
(I9
I27
tp2137
(dp2138
s(I30
I6
tp2139
(dp2140
s(I9
I11
tp2141
(dp2142
s(I14
I6
tp2143
(dp2144
ssg34
(dp2145
(I28
I20
tp2146
(dp2147
s(I12
I20
tp2148
(dp2149
s(I7
I15
tp2150
(dp2151
ssg36
(dp2152
(I31
I11
tp2153
(dp2154
s(I5
I11
tp2155
(dp2156
s(I10
I6
tp2157
(dp2158
s(I31
I27
tp2159
(dp2160
s(I5
I27
tp2161
(dp2162
s(I26
I6
tp2163
(dp2164
ssg38
(dp2165
(I31
I13
tp2166
(dp2167
s(I15
I13
tp2168
(dp2169
s(I10
I18
tp2170
(dp2171
ssg40
(dp2172
(I8
I14
tp2173
(dp2174
s(I29
I19
tp2175
(dp2176
s(I13
I19
tp2177
(dp2178
ssg42
(dp2179
(I21
I13
tp2180
(dp2181
s(I0
I18
tp2182
(dp2183
s(I16
I18
tp2184
(dp2185
ssg44
(dp2186
(I1
I13
tp2187
(dp2188
s(I22
I8
tp2189
(dp2190
s(I17
I13
tp2191
(dp2192
ssg46
(dp2193
(I27
I23
tp2194
(dp2195
s(I6
I18
tp2196
(dp2197
s(I22
I18
tp2198
(dp2199
s(I1
I23
tp2200
(dp2201
ssg48
(dp2202
(I23
I15
tp2203
(dp2204
s(I2
I20
tp2205
(dp2206
s(I18
I20
tp2207
(dp2208
ssg50
(dp2209
(I23
I17
tp2210
(dp2211
s(I2
I22
tp2212
(dp2213
s(I28
I22
tp2214
(dp2215
s(I7
I17
tp2216
(dp2217
ssg52
(dp2218
(I24
I30
tp2219
(dp2220
s(I3
I9
tp2221
(dp2222
s(I24
I14
tp2223
(dp2224
s(I19
I9
tp2225
(dp2226
ssg54
(dp2227
(I8
I30
tp2228
(dp2229
s(I13
I9
tp2230
(dp2231
s(I13
I25
tp2232
(dp2233
s(I8
I4
tp2234
(dp2235
ssg56
(dp2236
(I16
I1
tp2237
(dp2238
s(I16
I27
tp2239
(dp2240
s(I11
I22
tp2241
g2224
s(I11
I6
tp2242
(dp2243
ssg58
(dp2244
(I27
I9
tp2245
(dp2246
s(I22
I14
tp2247
(dp2248
s(I1
I9
tp2249
(dp2250
s(I6
I14
tp2251
(dp2252
ssg60
(dp2253
(I4
I4
tp2254
(dp2255
s(I25
I25
tp2256
(dp2257
s(I4
I30
tp2258
(dp2259
s(I20
I30
tp2260
(dp2261
s(I20
I4
tp2262
(dp2263
s(I25
I9
tp2264
(dp2265
ssg62
(dp2266
(I14
I20
tp2267
(dp2268
s(I9
I15
tp2269
(dp2270
ssg64
(dp2271
(I17
I2
tp2272
(dp2273
s(I12
I7
tp2274
(dp2275
s(I12
I23
tp2276
(dp2277
s(I17
I28
tp2278
(dp2279
ssg66
(dp2280
(I23
I17
tp2281
(dp2282
s(I28
I12
tp2283
(dp2284
s(I2
I12
tp2285
(dp2286
s(I7
I17
tp2287
(dp2288
ssg68
(dp2289
(I5
I7
tp2290
(dp2291
s(I26
I28
tp2292
(dp2293
s(I0
I12
tp2294
(dp2295
s(I21
I7
tp2296
(dp2297
s(I26
I12
tp2298
(dp2299
s(I0
I28
tp2300
(dp2301
ssg70
(dp2302
(I15
I19
tp2303
(dp2304
s(I10
I14
tp2305
(dp2306
ssg72
(dp2307
(I13
I4
tp2308
(dp2309
s(I13
I20
tp2310
g2299
s(I18
I25
tp2311
(dp2312
ssg74
(dp2313
(I16
I9
tp2314
g2088
s(I16
I25
tp2315
(dp2316
s(I21
I4
tp2317
(dp2318
s(I21
I30
tp2319
(dp2320
ssg76
(dp2321
(I11
I15
tp2322
(dp2323
s(I16
I10
tp2324
(dp2325
ssg78
(dp2326
(I14
I9
tp2327
(dp2328
s(I19
I14
tp2329
(dp2330
ssg80
(dp2331
(I22
I27
tp2332
(dp2333
s(I17
I22
tp2334
(dp2335
s(I22
I1
tp2336
(dp2337
s(I17
I6
tp2338
(dp2339
ssg82
(dp2340
(I12
I18
tp2341
(dp2342
s(I17
I13
tp2343
(dp2344
ssg84
(dp2345
(I20
I23
tp2346
(dp2347
s(I15
I18
tp2348
(dp2349
s(I15
I2
tp2350
(dp2351
ssg86
(dp2352
(I18
I7
tp2353
(dp2354
s(I18
I23
tp2355
(dp2356
s(I23
I28
tp2357
(dp2358
s(I23
I2
tp2359
(dp2360
ssg88
(dp2361
(I18
I16
tp2362
(dp2363
s(I13
I11
tp2364
(dp2365
ssg90
(dp2366
(I16
I3
tp2367
(dp2368
s(I16
I19
tp2369
(dp2370
s(I21
I24
tp2371
(dp2372
ssg92
(dp2373
(I3
I8
tp2374
(dp2375
s(I24
I13
tp2376
(dp2377
s(I8
I13
tp2378
(dp2379
s(I29
I8
tp2380
(dp2381
ssg94
(dp2382
(I19
I31
tp2383
(dp2384
s(I14
I10
tp2385
(dp2386
s(I19
I15
tp2387
(dp2388
ssg96
(dp2389
(I22
I3
tp2390
(dp2391
s(I17
I8
tp2392
(dp2393
s(I17
I24
tp2394
(dp2395
s(I22
I29
tp2396
(dp2397
ssg98
(dp2398
(I27
I0
tp2399
(dp2400
s(I27
I26
tp2401
(dp2402
s(I6
I21
tp2403
(dp2404
s(I11
I0
tp2405
(dp2406
s(I11
I26
tp2407
(dp2408
s(I6
I5
tp2409
(dp2410
ssg100
(dp2411
(I9
I26
tp2412
(dp2413
s(I9
I0
tp2414
g2192
s(I30
I21
tp2415
(dp2416
s(I4
I5
tp2417
g2344
s(I25
I26
tp2418
(dp2419
s(I25
I0
tp2420
(dp2421
s(I30
I5
tp2422
(dp2423
s(I4
I21
tp2424
(dp2425
ssg102
(dp2426
(I20
I30
tp2427
(dp2428
s(I20
I14
tp2429
(dp2430
s(I15
I9
tp2431
(dp2432
ssg104
(dp2433
(I18
I13
tp2434
(dp2435
s(I23
I8
tp2436
(dp2437
s(I18
I29
tp2438
(dp2439
ssg106
(dp2440
(I12
I1
tp2441
(dp2442
s(I12
I27
tp2443
(dp2444
s(I7
I6
tp2445
(dp2446
s(I28
I1
tp2447
(dp2448
s(I28
I27
tp2449
(dp2450
s(I7
I22
tp2451
g2430
ssg108
(dp2452
(I31
I18
tp2453
(dp2454
s(I26
I23
tp2455
(dp2456
s(I5
I18
tp2457
(dp2458
s(I31
I2
tp2459
(dp2460
s(I10
I23
tp2461
(dp2462
s(I5
I2
tp2463
(dp2464
ssg110
(dp2465
(I10
I27
tp2466
(dp2467
s(I15
I6
tp2468
(dp2469
s(I10
I11
tp2470
(dp2471
s(I31
I6
tp2472
g2071
ssg112
(dp2473
(I29
I28
tp2474
(dp2475
s(I13
I2
tp2476
(dp2477
s(I8
I23
tp2478
(dp2479
s(I13
I28
tp2480
(dp2481
s(I29
I2
tp2482
(dp2483
s(I8
I7
tp2484
(dp2485
ssg114
(dp2486
(I0
I25
tp2487
(dp2488
s(I16
I25
tp2489
(dp2490
s(I21
I20
tp2491
(dp2492
s(I21
I4
tp2493
(dp2494
ssg116
(dp2495
(I30
I25
tp2496
(dp2497
s(I14
I25
tp2498
(dp2499
s(I9
I20
tp2500
(dp2501
s(I9
I4
tp2502
(dp2503
ssg118
(dp2504
(I17
I22
tp2505
(dp2506
s(I22
I17
tp2507
(dp2508
s(I1
I22
tp2509
(dp2510
s(I22
I1
tp2511
(dp2512
ssg120
(dp2513
(I15
I22
tp2514
(dp2515
s(I31
I22
tp2516
(dp2517
s(I10
I17
tp2518
(dp2519
s(I10
I1
tp2520
(dp2521
ssg122
(dp2522
(I23
I22
tp2523
(dp2524
s(I18
I27
tp2525
(dp2526
s(I2
I1
tp2527
(dp2528
s(I23
I6
tp2529
(dp2530
s(I2
I27
tp2531
g2306
s(I18
I1
tp2532
(dp2533
ssg124
(dp2534
(I21
I26
tp2535
(dp2536
s(I16
I31
tp2537
(dp2538
s(I0
I5
tp2539
(dp2540
s(I21
I10
tp2541
(dp2542
s(I0
I31
tp2543
(dp2544
s(I16
I5
tp2545
(dp2546
ssg126
(dp2547
(I3
I2
tp2548
g2323
s(I19
I28
tp2549
(dp2550
s(I24
I7
tp2551
(dp2552
s(I19
I2
tp2553
(dp2554
s(I3
I28
tp2555
(dp2556
s(I24
I23
tp2557
(dp2558
ssg128
(dp2559
(I22
I27
tp2560
(dp2561
s(I17
I6
tp2562
(dp2563
s(I22
I11
tp2564
(dp2565
s(I1
I6
tp2566
(dp2567
ssg130
(dp2568
(I11
I29
tp2569
(dp2570
s(I16
I8
tp2571
(dp2572
s(I11
I13
tp2573
(dp2574
ssg132
(dp2575
(I27
I0
tp2576
(dp2577
s(I1
I16
tp2578
(dp2579
s(I6
I21
tp2580
(dp2581
s(I27
I16
tp2582
(dp2583
s(I1
I0
tp2584
(dp2585
s(I22
I21
tp2586
(dp2587
ssg134
(dp2588
(I4
I21
tp2589
(dp2590
s(I20
I21
tp2591
(dp2592
s(I25
I16
tp2593
(dp2594
s(I25
I0
tp2595
(dp2596
ssg136
(dp2597
(I9
I8
tp2598
(dp2599
s(I14
I13
tp2600
(dp2601
s(I14
I29
tp2602
(dp2603
ssg138
(dp2604
(I17
I29
tp2605
(dp2606
s(I12
I24
tp2607
(dp2608
s(I17
I3
tp2609
(dp2610
s(I12
I8
tp2611
g2594
ssg140
(dp2612
(I28
I5
tp2613
(dp2614
s(I7
I0
tp2615
(dp2616
s(I7
I26
tp2617
(dp2618
s(I2
I21
tp2619
(dp2620
s(I28
I21
tp2621
(dp2622
s(I23
I0
tp2623
(dp2624
s(I23
I26
tp2625
g2169
s(I2
I5
tp2626
(dp2627
ssg142
(dp2628
(I26
I21
tp2629
(dp2630
s(I0
I21
tp2631
(dp2632
s(I21
I0
tp2633
(dp2634
s(I0
I5
tp2635
(dp2636
s(I26
I5
tp2637
(dp2638
s(I5
I26
tp2639
(dp2640
s(I5
I0
tp2641
(dp2642
s(I21
I26
tp2643
(dp2644
ssg144
(dp2645
(I10
I31
tp2646
(dp2647
s(I10
I5
tp2648
(dp2649
s(I15
I10
tp2650
(dp2651
s(I15
I26
tp2652
(dp2653
ssg146
(dp2654
(I13
I15
tp2655
(dp2656
s(I13
I31
tp2657
(dp2658
s(I18
I10
tp2659
g2456
ssg148
(dp2660
(I8
I1
tp2661
(dp2662
s(I13
I22
tp2663
(dp2664
s(I8
I27
tp2665
(dp2666
s(I13
I6
tp2667
(dp2668
ssg150
(dp2669
(I11
I24
tp2670
(dp2671
s(I16
I19
tp2672
(dp2673
s(I16
I3
tp2674
(dp2675
ssg152
(dp2676
(I19
I19
tp2677
(dp2678
s(I14
I14
tp2679
(dp2680
ssg154
(dp2681
(I9
I2
tp2682
(dp2683
s(I14
I7
tp2684
(dp2685
s(I14
I23
tp2686
(dp2687
s(I9
I28
tp2688
(dp2689
ssg156
(dp2690
(I12
I25
tp2691
(dp2692
s(I17
I4
tp2693
(dp2694
s(I17
I20
tp2695
g2128
ssg158
(dp2696
(I20
I14
tp2697
g2448
s(I15
I9
tp2698
(dp2699
ssg160
(dp2700
(I15
I20
tp2701
(dp2702
s(I15
I4
tp2703
g2286
s(I10
I25
tp2704
(dp2705
ssg162
(dp2706
(I13
I14
tp2707
(dp2708
s(I18
I9
tp2709
(dp2710
ssg164
(dp2711
(I21
I17
tp2712
(dp2713
s(I16
I12
tp2714
(dp2715
ssg166
(dp2716
(I16
I25
tp2717
(dp2718
s(I16
I9
tp2719
g2098
s(I11
I4
tp2720
(dp2721
s(I11
I30
tp2722
(dp2723
ssg168
(dp2724
(I3
I15
tp2725
(dp2726
s(I24
I20
tp2727
(dp2728
s(I29
I15
tp2729
(dp2730
s(I8
I20
tp2731
(dp2732
ssg170
(dp2733
(I14
I27
tp2734
(dp2735
s(I14
I1
tp2736
g2252
s(I19
I6
tp2737
(dp2738
s(I19
I22
tp2739
(dp2740
ssg172
(dp2741
(I17
I19
tp2742
(dp2743
s(I22
I14
tp2744
(dp2745
ssg174
(dp2746
(I11
I5
tp2747
(dp2748
s(I11
I31
tp2749
(dp2750
s(I6
I10
tp2751
(dp2752
s(I27
I5
tp2753
(dp2754
s(I27
I31
tp2755
(dp2756
s(I6
I26
tp2757
(dp2758
ssg176
(dp2759
(I9
I19
tp2760
g2563
s(I25
I19
tp2761
(dp2762
s(I4
I14
tp2763
(dp2764
s(I30
I14
tp2765
g2339
ssg178
(dp2766
(I15
I28
tp2767
(dp2768
s(I20
I23
tp2769
(dp2770
s(I20
I7
tp2771
g2151
s(I15
I2
tp2772
(dp2773
ssg180
(dp2774
(I18
I26
tp2775
(dp2776
s(I23
I31
tp2777
(dp2778
s(I23
I5
tp2779
(dp2780
s(I18
I10
tp2781
g2454
ssg182
(dp2782
(I28
I8
tp2783
(dp2784
s(I7
I13
tp2785
(dp2786
s(I7
I29
tp2787
(dp2788
s(I12
I8
tp2789
g2592
ssg184
(dp2790
(I31
I13
tp2791
(dp2792
s(I26
I18
tp2793
(dp2794
s(I5
I13
tp2795
(dp2796
s(I10
I18
tp2797
(dp2798
ssg186
(dp2799
(I24
I16
tp2800
(dp2801
s(I8
I16
tp2802
(dp2803
s(I29
I21
tp2804
(dp2805
s(I3
I21
tp2806
(dp2807
ssg188
(dp2808
(I8
I16
tp2809
(dp2810
s(I8
I0
tp2811
(dp2812
s(I13
I21
tp2813
(dp2814
s(I29
I21
tp2815
(dp2816
ssg190
(dp2817
(I9
I11
tp2818
(dp2819
s(I30
I16
tp2820
g2395
s(I25
I11
tp2821
(dp2822
s(I4
I16
tp2823
(dp2824
ssg192
(dp2825
(I14
I20
tp2826
(dp2827
s(I30
I20
tp2828
(dp2829
s(I9
I15
tp2830
(dp2831
ssg194
(dp2832
(I26
I18
tp2833
(dp2834
s(I5
I23
tp2835
(dp2836
s(I31
I23
tp2837
(dp2838
s(I10
I18
tp2839
(dp2840
ssg196
(dp2841
(I15
I19
tp2842
(dp2843
s(I10
I14
tp2844
g2530
s(I31
I19
tp2845
(dp2846
ssg198
(dp2847
(I18
I22
tp2848
(dp2849
s(I23
I1
tp2850
(dp2851
s(I2
I22
tp2852
(dp2853
s(I23
I17
tp2854
(dp2855
ssg200
(dp2856
(I21
I17
tp2857
(dp2858
s(I16
I12
tp2859
(dp2860
s(I0
I12
tp2861
(dp2862
ssg202
(dp2863
(I3
I17
tp2864
g2721
s(I19
I17
tp2865
(dp2866
s(I24
I12
tp2867
(dp2868
ssg204
(dp2869
(I22
I28
tp2870
(dp2871
s(I17
I7
tp2872
(dp2873
s(I22
I12
tp2874
g2501
s(I1
I7
tp2875
(dp2876
ssg206
(dp2877
(I11
I20
tp2878
(dp2879
s(I16
I15
tp2880
(dp2881
ssg208
(dp2882
(I27
I27
tp2883
(dp2884
s(I6
I6
tp2885
(dp2886
s(I1
I27
tp2887
(dp2888
s(I27
I11
tp2889
(dp2890
s(I22
I6
tp2891
(dp2892
s(I1
I11
tp2893
(dp2894
ssg210
(dp2895
(I20
I20
tp2896
(dp2897
s(I4
I20
tp2898
(dp2899
s(I25
I15
tp2900
g2275
ssg212
(dp2901
(I23
I27
tp2902
(dp2903
s(I2
I6
tp2904
(dp2905
s(I18
I6
tp2906
(dp2907
s(I23
I11
tp2908
(dp2909
ssg214
(dp2910
(I12
I17
tp2911
g2257
s(I17
I12
tp2912
(dp2913
ssg216
(dp2914
(I28
I18
tp2915
(dp2916
s(I2
I18
tp2917
g2651
s(I23
I23
tp2918
(dp2919
s(I28
I2
tp2920
(dp2921
s(I2
I2
tp2922
(dp2923
s(I7
I23
tp2924
(dp2925
ssg218
(dp2926
(I26
I14
tp2927
(dp2928
s(I0
I14
tp2929
g2668
s(I21
I19
tp2930
(dp2931
s(I5
I19
tp2932
(dp2933
ssg220
(dp2934
(I19
I13
tp2935
g2408
s(I24
I18
tp2936
(dp2937
s(I3
I13
tp2938
(dp2939
ssg222
(dp2940
(I13
I22
tp2941
(dp2942
s(I18
I17
tp2943
(dp2944
ssg224
(dp2945
(I8
I18
tp2946
g2540
s(I13
I13
tp2947
g2636
ssg226
(dp2948
(I11
I10
tp2949
(dp2950
s(I16
I15
tp2951
(dp2952
ssg228
(dp2953
(I25
I21
tp2954
(dp2955
s(I20
I16
tp2956
(dp2957
s(I4
I16
tp2958
(dp2959
ssg230
(dp2960
(I19
I18
tp2961
g2756
s(I14
I23
tp2962
(dp2963
ssg232
(dp2964
(I9
I13
tp2965
(dp2966
s(I14
I8
tp2967
g2585
ssg234
(dp2968
(I17
I16
tp2969
(dp2970
s(I12
I11
tp2971
(dp2972
ssg236
(dp2973
(I17
I19
tp2974
(dp2975
s(I17
I3
tp2976
(dp2977
s(I12
I24
tp2978
(dp2979
ssg238
(dp2980
(I15
I16
tp2981
(dp2982
s(I20
I11
tp2983
(dp2984
ssg240
(dp2985
(I10
I20
tp2986
(dp2987
s(I15
I15
tp2988
(dp2989
ssg242
(dp2990
(I18
I2
tp2991
(dp2992
s(I13
I23
tp2993
(dp2994
s(I18
I18
tp2995
(dp2996
ssg244
(dp2997
(I16
I21
tp2998
(dp2999
s(I21
I16
tp3000
(dp3001
ssg246
(dp3002
(I16
I30
tp3003
(dp3004
s(I11
I9
tp3005
(dp3006
s(I16
I14
tp3007
(dp3008
ssg248
(dp3009
(I19
I9
tp3010
(dp3011
s(I14
I14
tp3012
(dp3013
ssg250
(dp3014
(I17
I10
tp3015
(dp3016
s(I22
I15
tp3017
(dp3018
ssg252
(dp3019
(I17
I9
tp3020
(dp3021
s(I12
I4
tp3022
(dp3023
s(I12
I30
tp3024
(dp3025
s(I17
I25
tp3026
(dp3027
ssg254
(dp3028
(I6
I19
tp3029
(dp3030
s(I27
I14
tp3031
(dp3032
s(I11
I14
tp3033
(dp3034
ssg256
(dp3035
(I20
I12
tp3036
(dp3037
s(I15
I17
tp3038
(dp3039
ssg258
(dp3040
(I23
I14
tp3041
(dp3042
s(I18
I19
tp3043
g2160
ssg260
(dp3044
(I13
I7
tp3045
(dp3046
s(I18
I28
tp3047
(dp3048
s(I18
I12
tp3049
(dp3050
ssg262
(dp3051
(I7
I20
tp3052
(dp3053
s(I12
I15
tp3054
(dp3055
s(I28
I15
tp3056
(dp3057
ssg264
(dp3058
(I29
I28
tp3059
(dp3060
s(I3
I12
tp3061
(dp3062
s(I24
I7
tp3063
(dp3064
s(I29
I12
tp3065
(dp3066
s(I3
I28
tp3067
(dp3068
s(I8
I7
tp3069
(dp3070
ssg266
(dp3071
(I19
I19
tp3072
(dp3073
s(I14
I14
tp3074
(dp3075
ssg268
(dp3076
(I8
I25
tp3077
g2858
s(I29
I30
tp3078
(dp3079
s(I13
I4
tp3080
(dp3081
s(I8
I9
tp3082
(dp3083
s(I13
I30
tp3084
(dp3085
s(I29
I4
tp3086
g2713
ssg270
(dp3087
(I6
I9
tp3088
(dp3089
s(I27
I14
tp3090
(dp3091
s(I11
I14
tp3092
(dp3093
ssg272
(dp3094
(I9
I30
tp3095
(dp3096
s(I25
I30
tp3097
(dp3098
s(I25
I4
tp3099
(dp3100
s(I30
I9
tp3101
(dp3102
s(I4
I25
tp3103
(dp3104
s(I9
I4
tp3105
(dp3106
s(I4
I9
tp3107
(dp3108
s(I30
I25
tp3109
(dp3110
ssg274
(dp3111
(I14
I17
tp3112
(dp3113
s(I9
I22
tp3114
(dp3115
s(I30
I17
tp3116
(dp3117
ssg276
(dp3118
(I5
I30
tp3119
(dp3120
s(I31
I14
tp3121
(dp3122
s(I26
I9
tp3123
(dp3124
s(I5
I14
tp3125
(dp3126
s(I31
I30
tp3127
(dp3128
s(I10
I9
tp3129
g2849
ssg278
(dp3130
(I10
I23
tp3131
(dp3132
s(I31
I18
tp3133
g2778
s(I15
I18
tp3134
(dp3135
ssg280
(dp3136
(I16
I13
tp3137
(dp3138
s(I0
I13
tp3139
(dp3140
s(I21
I8
tp3141
g2812
ssg282
(dp3142
(I1
I16
tp3143
(dp3144
s(I17
I16
tp3145
(dp3146
s(I22
I21
tp3147
(dp3148
ssg284
(dp3149
(I1
I18
tp3150
(dp3151
s(I27
I18
tp3152
(dp3153
s(I22
I13
tp3154
(dp3155
s(I6
I13
tp3156
(dp3157
ssg286
(dp3158
(I2
I13
tp3159
(dp3160
s(I18
I13
tp3161
(dp3162
s(I23
I18
tp3163
(dp3164
ssg288
(dp3165
(I28
I11
tp3166
(dp3167
s(I7
I6
tp3168
(dp3169
s(I2
I11
tp3170
(dp3171
s(I28
I27
tp3172
(dp3173
s(I23
I6
tp3174
g2843
s(I2
I27
tp3175
g2304
ssg290
(dp3176
(I24
I27
tp3177
(dp3178
s(I24
I11
tp3179
(dp3180
s(I19
I6
tp3181
(dp3182
s(I3
I6
tp3183
(dp3184
ssg292
(dp3185
(I13
I17
tp3186
(dp3187
s(I18
I12
tp3188
(dp3189
ssg294
(dp3190
(I13
I20
tp3191
g2301
s(I8
I15
tp3192
(dp3193
ssg296
(dp3194
(I16
I22
tp3195
(dp3196
s(I11
I1
tp3197
(dp3198
s(I11
I17
tp3199
(dp3200
ssg298
(dp3201
(I4
I7
tp3202
(dp3203
s(I25
I12
tp3204
(dp3205
s(I20
I7
tp3206
g2149
s(I25
I28
tp3207
(dp3208
ssg300
(dp3209
(I14
I12
tp3210
(dp3211
s(I19
I7
tp3212
(dp3213
s(I14
I28
tp3214
(dp3215
ssg302
(dp3216
(I14
I17
tp3217
(dp3218
s(I9
I12
tp3219
(dp3220
ssg304
(dp3221
(I12
I12
tp3222
(dp3223
s(I17
I17
tp3224
g3100
ssg306
(dp3225
(I0
I17
tp3226
g2233
s(I5
I12
tp3227
(dp3228
s(I21
I12
tp3229
(dp3230
s(I26
I17
tp3231
(dp3232
ssg308
(dp3233
(I20
I10
tp3234
(dp3235
s(I15
I15
tp3236
(dp3237
s(I15
I31
tp3238
(dp3239
ssg310
(dp3240
(I15
I22
tp3241
(dp3242
s(I10
I17
tp3243
(dp3244
ssg312
(dp3245
(I18
I16
tp3246
(dp3247
s(I13
I11
tp3248
(dp3249
ssg314
(dp3250
(I16
I14
tp3251
(dp3252
s(I21
I9
tp3253
(dp3254
s(I16
I30
tp3255
(dp3256
ssg316
(dp3257
(I11
I18
tp3258
(dp3259
s(I16
I23
tp3260
(dp3261
ssg318
(dp3262
(I14
I18
tp3263
(dp3264
s(I14
I2
tp3265
(dp3266
s(I19
I23
tp3267
(dp3268
ssg320
(dp3269
(I17
I13
tp3270
g2423
s(I22
I18
tp3271
(dp3272
ssg322
(dp3273
(I17
I16
tp3274
(dp3275
s(I12
I11
tp3276
(dp3277
ssg324
(dp3278
(I15
I21
tp3279
(dp3280
s(I15
I5
tp3281
(dp3282
s(I20
I26
tp3283
(dp3284
s(I20
I0
tp3285
(dp3286
ssg326
(dp3287
(I18
I8
tp3288
(dp3289
s(I23
I13
tp3290
(dp3291
ssg328
(dp3292
(I18
I21
tp3293
(dp3294
s(I13
I16
tp3295
(dp3296
ssg330
(dp3297
(I7
I19
tp3298
(dp3299
s(I12
I14
tp3300
(dp3301
s(I28
I14
tp3302
(dp3303
ssg332
(dp3304
(I8
I24
tp3305
(dp3306
s(I3
I3
tp3307
(dp3308
s(I29
I19
tp3309
(dp3310
s(I24
I24
tp3311
(dp3312
s(I3
I19
tp3313
(dp3314
s(I29
I3
tp3315
(dp3316
ssg334
(dp3317
(I19
I26
tp3318
(dp3319
s(I14
I31
tp3320
g2197
s(I19
I10
tp3321
(dp3322
s(I14
I5
tp3323
(dp3324
ssg336
(dp3325
(I29
I13
tp3326
(dp3327
s(I8
I18
tp3328
g2536
s(I13
I13
tp3329
g2644
ssg338
(dp3330
(I11
I19
tp3331
g3182
s(I27
I19
tp3332
(dp3333
s(I6
I14
tp3334
g2738
ssg340
(dp3335
(I4
I18
tp3336
(dp3337
s(I30
I2
tp3338
g3016
s(I9
I23
tp3339
(dp3340
s(I4
I2
tp3341
(dp3342
s(I30
I18
tp3343
(dp3344
s(I25
I23
tp3345
(dp3346
ssg342
(dp3347
(I15
I14
tp3348
(dp3349
s(I20
I19
tp3350
(dp3351
ssg344
(dp3352
(I14
I30
tp3353
(dp3354
s(I14
I4
tp3355
(dp3356
s(I9
I9
tp3357
g2508
s(I30
I30
tp3358
(dp3359
s(I30
I4
tp3360
(dp3361
s(I9
I25
tp3362
(dp3363
ssg346
(dp3364
(I28
I14
tp3365
(dp3366
s(I12
I14
tp3367
(dp3368
s(I7
I9
tp3369
(dp3370
ssg348
(dp3371
(I5
I9
tp3372
(dp3373
s(I10
I30
tp3374
(dp3375
s(I10
I4
tp3376
(dp3377
s(I31
I9
tp3378
(dp3379
s(I5
I25
tp3380
(dp3381
s(I26
I30
tp3382
g2944
s(I26
I4
tp3383
(dp3384
s(I31
I25
tp3385
(dp3386
ssg350
(dp3387
(I31
I7
tp3388
(dp3389
s(I15
I7
tp3390
(dp3391
s(I10
I12
tp3392
(dp3393
s(I10
I28
tp3394
(dp3395
ssg352
(dp3396
(I13
I17
tp3397
(dp3398
s(I29
I17
tp3399
g2318
s(I8
I12
tp3400
g2494
ssg354
(dp3401
(I21
I15
tp3402
g2485
s(I16
I20
tp3403
g3070
s(I0
I20
tp3404
(dp3405
ssg356
(dp3406
(I9
I19
tp3407
g2565
s(I9
I3
tp3408
(dp3409
s(I14
I24
tp3410
(dp3411
s(I30
I24
tp3412
(dp3413
ssg358
(dp3414
(I1
I19
tp3415
(dp3416
s(I17
I19
tp3417
(dp3418
s(I22
I14
tp3419
(dp3420
ssg360
(dp3421
(I1
I21
tp3422
g2603
s(I27
I21
tp3423
(dp3424
s(I6
I16
tp3425
(dp3426
s(I22
I16
tp3427
(dp3428
ssg362
(dp3429
(I18
I18
tp3430
(dp3431
s(I23
I13
tp3432
(dp3433
s(I2
I18
tp3434
g2649
ssg364
(dp3435
(I2
I16
tp3436
(dp3437
s(I28
I16
tp3438
(dp3439
s(I23
I11
tp3440
(dp3441
s(I7
I11
tp3442
(dp3443
ssg366
(dp3444
(I24
I16
tp3445
(dp3446
s(I19
I21
tp3447
(dp3448
s(I24
I0
tp3449
(dp3450
s(I3
I21
tp3451
(dp3452
ssg368
(dp3453
(I8
I6
tp3454
(dp3455
s(I13
I11
tp3456
(dp3457
s(I13
I27
tp3458
(dp3459
ssg370
(dp3460
(I11
I8
tp3461
g3446
s(I11
I24
tp3462
(dp3463
s(I16
I3
tp3464
(dp3465
s(I16
I29
tp3466
g2801
ssg372
(dp3467
(I6
I20
tp3468
(dp3469
s(I27
I15
tp3470
(dp3471
s(I22
I20
tp3472
(dp3473
s(I1
I15
tp3474
g2685
ssg374
(dp3475
(I25
I27
tp3476
(dp3477
s(I4
I6
tp3478
(dp3479
s(I25
I11
tp3480
(dp3481
s(I20
I6
tp3482
(dp3483
ssg376
(dp3484
(I9
I5
tp3485
(dp3486
s(I14
I10
tp3487
(dp3488
s(I14
I26
tp3489
g3151
s(I9
I31
tp3490
(dp3491
ssg378
(dp3492
(I12
I5
tp3493
(dp3494
s(I12
I21
tp3495
(dp3496
s(I17
I0
tp3497
(dp3498
s(I17
I26
tp3499
(dp3500
ssg380
(dp3501
(I7
I19
tp3502
(dp3503
s(I2
I14
tp3504
(dp3505
s(I28
I14
tp3506
(dp3507
s(I23
I19
tp3508
g2469
ssg382
(dp3509
(I5
I31
tp3510
g2078
s(I5
I5
tp3511
(dp3512
s(I26
I26
tp3513
(dp3514
s(I21
I31
tp3515
(dp3516
s(I21
I5
tp3517
(dp3518
s(I26
I10
tp3519
(dp3520
s(I0
I26
tp3521
(dp3522
s(I0
I10
tp3523
(dp3524
ssg384
(dp3525
(I10
I12
tp3526
(dp3527
s(I15
I17
tp3528
(dp3529
ssg386
(dp3530
(I18
I23
tp3531
(dp3532
s(I13
I18
tp3533
g3520
s(I13
I2
tp3534
(dp3535
ssg388
(dp3536
(I8
I22
tp3537
(dp3538
s(I13
I1
tp3539
(dp3540
s(I13
I17
tp3541
(dp3542
ssg390
(dp3543
(I11
I17
tp3544
(dp3545
s(I16
I12
tp3546
(dp3547
ssg392
(dp3548
(I14
I11
tp3549
(dp3550
s(I19
I16
tp3551
(dp3552
ssg394
(dp3553
(I22
I25
tp3554
(dp3555
s(I17
I20
tp3556
g2120
s(I17
I4
tp3557
(dp3558
ssg396
(dp3559
(I12
I20
tp3560
g3203
s(I17
I15
tp3561
(dp3562
ssg398
(dp3563
(I15
I12
tp3564
(dp3565
s(I20
I17
tp3566
(dp3567
ssg400
(dp3568
(I23
I22
tp3569
(dp3570
s(I18
I17
tp3571
g3379
s(I18
I1
tp3572
(dp3573
ssg402
(dp3574
(I18
I14
tp3575
(dp3576
s(I13
I19
tp3577
(dp3578
ssg404
(dp3579
(I16
I1
tp3580
(dp3581
s(I16
I17
tp3582
(dp3583
s(I21
I22
tp3584
(dp3585
ssg406
(dp3586
(I3
I10
tp3587
(dp3588
s(I29
I10
tp3589
(dp3590
s(I24
I15
tp3591
(dp3592
s(I8
I15
tp3593
(dp3594
ssg408
(dp3595
(I19
I13
tp3596
g2404
s(I14
I8
tp3597
g2581
s(I19
I29
tp3598
(dp3599
ssg410
(dp3600
(I17
I30
tp3601
(dp3602
s(I22
I9
tp3603
(dp3604
s(I17
I14
tp3605
(dp3606
ssg412
(dp3607
(I6
I7
tp3608
(dp3609
s(I11
I2
tp3610
(dp3611
s(I11
I28
tp3612
(dp3613
s(I6
I23
tp3614
g2388
s(I27
I2
tp3615
(dp3616
s(I27
I28
tp3617
(dp3618
ssg414
(dp3619
(I30
I11
tp3620
(dp3621
s(I9
I16
tp3622
(dp3623
s(I25
I16
tp3624
g2610
s(I4
I11
tp3625
g2977
ssg416
(dp3626
(I15
I3
tp3627
(dp3628
s(I15
I29
tp3629
(dp3630
s(I20
I8
tp3631
(dp3632
s(I20
I24
tp3633
(dp3634
ssg418
(dp3635
(I18
I15
tp3636
(dp3637
s(I18
I31
tp3638
g2838
s(I23
I10
tp3639
(dp3640
ssg420
(dp3641
(I12
I21
tp3642
(dp3643
s(I7
I16
tp3644
g3632
s(I7
I0
tp3645
(dp3646
s(I28
I21
tp3647
(dp3648
ssg422
(dp3649
(I26
I21
tp3650
(dp3651
s(I5
I16
tp3652
(dp3653
s(I31
I16
tp3654
(dp3655
s(I10
I21
tp3656
(dp3657
s(I5
I0
tp3658
(dp3659
s(I31
I0
tp3660
g3289
ssg424
(dp3661
(I3
I16
tp3662
(dp3663
s(I8
I11
tp3664
(dp3665
s(I24
I11
tp3666
(dp3667
s(I29
I16
tp3668
(dp3669
ssg426
(dp3670
(I13
I26
tp3671
(dp3672
s(I8
I21
tp3673
(dp3674
s(I8
I5
tp3675
g2181
s(I29
I0
tp3676
(dp3677
s(I29
I26
tp3678
(dp3679
s(I13
I0
tp3680
(dp3681
ssg428
(dp3682
(I0
I1
tp3683
(dp3684
s(I0
I27
tp3685
(dp3686
s(I21
I22
tp3687
(dp3688
s(I16
I1
tp3689
(dp3690
s(I16
I27
tp3691
(dp3692
s(I21
I6
tp3693
g2174
ssg430
(dp3694
(I9
I10
tp3695
(dp3696
s(I30
I15
tp3697
(dp3698
s(I14
I15
tp3699
(dp3700
ssg432
(dp3701
(I1
I2
tp3702
(dp3703
s(I22
I23
tp3704
(dp3705
s(I17
I28
tp3706
(dp3707
s(I17
I2
tp3708
(dp3709
s(I22
I7
tp3710
g2831
s(I1
I28
tp3711
g2270
ssg434
(dp3712
(I15
I24
tp3713
g3441
s(I10
I19
tp3714
g2909
s(I31
I24
tp3715
(dp3716
s(I10
I3
tp3717
(dp3718
ssg436
(dp3719
(I23
I20
tp3720
g3393
s(I23
I4
tp3721
(dp3722
s(I18
I25
tp3723
(dp3724
s(I2
I25
tp3725
g3527
ssg438
(dp3726
(I21
I28
tp3727
g2110
s(I21
I12
tp3728
(dp3729
s(I16
I7
tp3730
g2732
s(I0
I7
tp3731
(dp3732
ssg440
(dp3733
(I24
I9
tp3734
g3198
s(I19
I14
tp3735
(dp3736
s(I3
I14
tp3737
(dp3738
ssg442
(dp3739
(I22
I25
tp3740
(dp3741
s(I17
I30
tp3742
(dp3743
s(I1
I4
tp3744
(dp3745
s(I22
I9
tp3746
(dp3747
s(I1
I30
tp3748
(dp3749
s(I17
I4
tp3750
(dp3751
ssg444
(dp3752
(I11
I15
tp3753
g2558
s(I16
I10
tp3754
(dp3755
s(I11
I31
tp3756
(dp3757
ssg446
(dp3758
(I1
I22
tp3759
(dp3760
s(I22
I27
tp3761
(dp3762
s(I6
I1
tp3763
g3013
s(I27
I6
tp3764
g2680
s(I1
I6
tp3765
(dp3766
s(I6
I27
tp3767
g3075
s(I22
I1
tp3768
(dp3769
s(I27
I22
tp3770
(dp3771
ssg448
(dp3772
(I25
I18
tp3773
(dp3774
s(I25
I2
tp3775
(dp3776
s(I4
I23
tp3777
(dp3778
s(I20
I23
tp3779
(dp3780
ssg450
(dp3781
(I23
I14
tp3782
(dp3783
s(I23
I30
tp3784
(dp3785
s(I18
I9
tp3786
(dp3787
s(I2
I9
tp3788
(dp3789
ssg452
(dp3790
(I17
I9
tp3791
(dp3792
s(I12
I14
tp3793
(dp3794
s(I12
I30
tp3795
(dp3796
ssg454
(dp3797
(I2
I7
tp3798
g2989
s(I23
I28
tp3799
(dp3800
s(I28
I23
tp3801
g3237
s(I23
I2
tp3802
(dp3803
s(I2
I23
tp3804
(dp3805
s(I7
I28
tp3806
(dp3807
s(I28
I7
tp3808
(dp3809
s(I7
I2
tp3810
(dp3811
ssg456
(dp3812
(I0
I19
tp3813
g3457
s(I26
I3
tp3814
g3249
s(I5
I24
tp3815
g2365
s(I0
I3
tp3816
(dp3817
s(I26
I19
tp3818
(dp3819
s(I21
I24
tp3820
(dp3821
ssg458
(dp3822
(I15
I24
tp3823
g3437
s(I10
I29
tp3824
(dp3825
s(I10
I3
tp3826
(dp3827
s(I15
I8
tp3828
(dp3829
ssg460
(dp3830
(I18
I8
tp3831
g3651
s(I13
I13
tp3832
g2630
s(I13
I29
tp3833
(dp3834
ssg462
(dp3835
(I8
I13
tp3836
(dp3837
s(I13
I8
tp3838
(dp3839
ssg464
(dp3840
(I11
I0
tp3841
(dp3842
s(I16
I5
tp3843
(dp3844
s(I11
I26
tp3845
g2939
s(I16
I21
tp3846
(dp3847
ssg466
(dp3848
(I14
I16
tp3849
(dp3850
s(I19
I11
tp3851
(dp3852
ssg468
(dp3853
(I9
I26
tp3854
(dp3855
s(I9
I0
tp3856
g2188
s(I14
I5
tp3857
(dp3858
s(I14
I21
tp3859
(dp3860
ssg470
(dp3861
(I17
I22
tp3862
(dp3863
s(I17
I6
tp3864
g2764
s(I12
I1
tp3865
(dp3866
s(I12
I27
tp3867
(dp3868
ssg472
(dp3869
(I15
I11
tp3870
(dp3871
s(I20
I16
tp3872
(dp3873
ssg474
(dp3874
(I10
I23
tp3875
(dp3876
s(I15
I2
tp3877
(dp3878
s(I15
I18
tp3879
(dp3880
ssg476
(dp3881
(I18
I23
tp3882
(dp3883
s(I18
I7
tp3884
(dp3885
s(I13
I28
tp3886
(dp3887
s(I13
I2
tp3888
(dp3889
ssg478
(dp3890
(I21
I15
tp3891
g2483
s(I16
I10
tp3892
(dp3893
ssg480
(dp3894
(I16
I27
tp3895
(dp3896
s(I16
I11
tp3897
g3314
s(I11
I6
tp3898
(dp3899
ssg482
(dp3900
(I19
I4
tp3901
g2115
s(I14
I25
tp3902
(dp3903
s(I19
I20
tp3904
(dp3905
ssg484
(dp3906
(I22
I12
tp3907
g2497
s(I17
I17
tp3908
g3110
ssg486
(dp3909
(I12
I7
tp3910
g2899
s(I17
I12
tp3911
(dp3912
s(I17
I28
tp3913
(dp3914
ssg488
(dp3915
(I6
I12
tp3916
g3905
s(I27
I7
tp3917
(dp3918
s(I11
I7
tp3919
(dp3920
s(I6
I28
tp3921
g2101
ssg490
(dp3922
(I30
I12
tp3923
g3558
s(I4
I12
tp3924
g2694
s(I9
I17
tp3925
g3751
s(I25
I17
tp3926
(dp3927
ssg492
(dp3928
(I20
I1
tp3929
g3370
s(I15
I22
tp3930
(dp3931
s(I20
I17
tp3932
(dp3933
ssg494
(dp3934
(I18
I20
tp3935
(dp3936
s(I23
I15
tp3937
(dp3938
ssg496
(dp3939
(I12
I10
tp3940
g3780
s(I7
I15
tp3941
g2770
s(I28
I10
tp3942
g2347
s(I7
I31
tp3943
(dp3944
ssg498
(dp3945
(I26
I16
tp3946
(dp3947
s(I10
I16
tp3948
(dp3949
s(I31
I11
tp3950
(dp3951
s(I5
I11
tp3952
(dp3953
ssg500
(dp3954
(I3
I23
tp3955
(dp3956
s(I29
I23
tp3957
(dp3958
s(I8
I18
tp3959
g2538
s(I24
I18
tp3960
(dp3961
ssg502
(dp3962
(I29
I9
tp3963
g3585
s(I8
I14
tp3964
g3688
s(I13
I9
tp3965
(dp3966
s(I8
I30
tp3967
(dp3968
ssg504
(dp3969
(I25
I17
tp3970
(dp3971
s(I30
I22
tp3972
g3602
s(I4
I22
tp3973
(dp3974
s(I9
I17
tp3975
g3743
ssg506
(dp3976
(I30
I18
tp3977
(dp3978
s(I9
I13
tp3979
(dp3980
s(I14
I18
tp3981
(dp3982
ssg508
(dp3983
(I10
I16
tp3984
(dp3985
s(I31
I21
tp3986
g2439
s(I5
I21
tp3987
(dp3988
s(I26
I16
tp3989
(dp3990
ssg510
(dp3991
(I31
I13
tp3992
(dp3993
s(I10
I8
tp3994
(dp3995
s(I15
I13
tp3996
g2624
ssg512
(dp3997
(I0
I14
tp3998
g2666
s(I21
I19
tp3999
(dp4000
s(I16
I14
tp4001
(dp4002
ssg514
(dp4003
(I24
I14
tp4004
g2243
s(I3
I19
tp4005
g3899
s(I19
I19
tp4006
(dp4007
ssg516
(dp4008
(I1
I13
tp4009
g3855
s(I22
I18
tp4010
(dp4011
s(I17
I13
tp4012
g2413
ssg518
(dp4013
(I16
I17
tp4014
(dp4015
s(I11
I22
tp4016
g2220
ssg520
(dp4017
(I6
I4
tp4018
(dp4019
s(I1
I25
tp4020
g3218
s(I27
I25
tp4021
(dp4022
s(I6
I30
tp4023
(dp4024
s(I22
I4
tp4025
(dp4026
s(I1
I9
tp4027
(dp4028
s(I27
I9
tp4029
(dp4030
s(I22
I30
tp4031
g3113
ssg522
(dp4032
(I25
I9
tp4033
(dp4034
s(I4
I14
tp4035
g3866
s(I20
I14
tp4036
g2442
ssg524
(dp4037
(I2
I30
tp4038
g3244
s(I18
I4
tp4039
(dp4040
s(I23
I9
tp4041
g2519
s(I18
I30
tp4042
(dp4043
s(I2
I4
tp4044
(dp4045
s(I23
I25
tp4046
(dp4047
ssg526
(dp4048
(I17
I18
tp4049
(dp4050
s(I12
I23
tp4051
(dp4052
ssg528
(dp4053
(I2
I28
tp4054
(dp4055
s(I28
I28
tp4056
(dp4057
s(I7
I7
tp4058
(dp4059
s(I2
I12
tp4060
g2702
s(I28
I12
tp4061
(dp4062
s(I23
I7
tp4063
(dp4064
ssg530
(dp4065
(I5
I17
tp4066
(dp4067
s(I21
I17
tp4068
g3081
s(I26
I12
tp4069
g2309
s(I0
I12
tp4070
(dp4071
ssg532
(dp4072
(I3
I15
tp4073
(dp4074
s(I24
I20
tp4075
(dp4076
s(I19
I15
tp4077
g3613
ssg534
(dp4078
(I18
I15
tp4079
(dp4080
s(I13
I20
tp4081
g2293
ssg536
(dp4082
(I13
I15
tp4083
(dp4084
s(I8
I20
tp4085
g3732
ssg538
(dp4086
(I16
I17
tp4087
(dp4088
s(I11
I12
tp4089
(dp4090
ssg540
(dp4091
(I4
I18
tp4092
(dp4093
s(I25
I23
tp4094
(dp4095
s(I20
I18
tp4096
(dp4097
ssg542
(dp4098
(I14
I9
tp4099
(dp4100
s(I19
I4
tp4101
g2113
s(I14
I25
tp4102
(dp4103
s(I19
I30
tp4104
(dp4105
ssg544
(dp4106
(I9
I19
tp4107
g2567
s(I14
I14
tp4108
g3766
ssg546
(dp4109
(I17
I14
tp4110
(dp4111
s(I12
I9
tp4112
(dp4113
ssg548
(dp4114
(I0
I22
tp4115
(dp4116
s(I21
I17
tp4117
g3085
s(I26
I22
tp4118
(dp4119
s(I5
I17
tp4120
(dp4121
ssg550
(dp4122
(I20
I13
tp4123
(dp4124
s(I15
I18
tp4125
(dp4126
ssg552
(dp4127
(I15
I13
tp4128
g2627
s(I10
I18
tp4129
(dp4130
ssg554
(dp4131
(I13
I14
tp4132
(dp4133
s(I18
I19
tp4134
g2164
ssg556
(dp4135
(I18
I16
tp4136
(dp4137
s(I13
I21
tp4138
(dp4139
s(I18
I0
tp4140
(dp4141
ssg558
(dp4142
(I21
I14
tp4143
(dp4144
s(I16
I19
tp4145
(dp4146
ssg560
(dp4147
(I16
I16
tp4148
(dp4149
s(I11
I11
tp4150
(dp4151
ssg562
(dp4152
(I14
I20
tp4153
(dp4154
s(I19
I15
tp4155
g3609
ssg564
(dp4156
(I17
I8
tp4157
(dp4158
s(I22
I13
tp4159
(dp4160
ssg566
(dp4161
(I17
I27
tp4162
(dp4163
s(I12
I6
tp4164
(dp4165
s(I17
I11
tp4166
(dp4167
ssg568
(dp4168
(I11
I16
tp4169
(dp4170
s(I27
I16
tp4171
(dp4172
s(I6
I21
tp4173
g3599
ssg570
(dp4174
(I15
I19
tp4175
g3169
s(I20
I14
tp4176
g2446
ssg572
(dp4177
(I18
I13
tp4178
(dp4179
s(I23
I18
tp4180
(dp4181
ssg574
(dp4182
(I18
I10
tp4183
g2458
s(I13
I31
tp4184
(dp4185
s(I13
I5
tp4186
(dp4187
s(I18
I26
tp4188
(dp4189
ssg576
(dp4190
(I28
I17
tp4191
(dp4192
s(I7
I22
tp4193
g2428
s(I12
I17
tp4194
g2261
ssg578
(dp4195
(I24
I9
tp4196
g3196
s(I29
I30
tp4197
(dp4198
s(I3
I30
tp4199
(dp4200
s(I8
I9
tp4201
(dp4202
s(I29
I14
tp4203
(dp4204
s(I3
I14
tp4205
(dp4206
ssg580
(dp4207
(I14
I12
tp4208
(dp4209
s(I19
I17
tp4210
(dp4211
ssg582
(dp4212
(I29
I18
tp4213
(dp4214
s(I13
I18
tp4215
g3516
s(I8
I23
tp4216
(dp4217
ssg584
(dp4218
(I6
I11
tp4219
(dp4220
s(I11
I16
tp4221
(dp4222
s(I27
I16
tp4223
(dp4224
ssg586
(dp4225
(I25
I10
tp4226
(dp4227
s(I30
I15
tp4228
(dp4229
s(I4
I15
tp4230
(dp4231
s(I9
I10
tp4232
(dp4233
s(I30
I31
tp4234
(dp4235
s(I4
I31
tp4236
(dp4237
ssg588
(dp4238
(I20
I20
tp4239
(dp4240
s(I15
I15
tp4241
g3807
ssg590
(dp4242
(I30
I15
tp4243
(dp4244
s(I14
I15
tp4245
(dp4246
s(I9
I20
tp4247
g2871
ssg592
(dp4248
(I7
I12
tp4249
(dp4250
s(I28
I17
tp4251
(dp4252
s(I12
I17
tp4253
g2263
ssg594
(dp4254
(I31
I28
tp4255
g3936
s(I10
I7
tp4256
g2208
s(I5
I12
tp4257
(dp4258
s(I31
I12
tp4259
(dp4260
s(I26
I7
tp4261
(dp4262
s(I5
I28
tp4263
(dp4264
ssg596
(dp4265
(I15
I12
tp4266
(dp4267
s(I31
I12
tp4268
(dp4269
s(I10
I17
tp4270
g4047
ssg598
(dp4271
(I21
I10
tp4272
(dp4273
s(I16
I15
tp4274
(dp4275
s(I0
I15
tp4276
(dp4277
ssg600
(dp4278
(I22
I11
tp4279
g3409
s(I1
I16
tp4280
(dp4281
s(I17
I16
tp4282
(dp4283
ssg602
(dp4284
(I6
I11
tp4285
(dp4286
s(I22
I11
tp4287
g3411
s(I1
I16
tp4288
(dp4289
s(I27
I16
tp4290
(dp4291
ssg604
(dp4292
(I18
I11
tp4293
(dp4294
s(I2
I11
tp4295
(dp4296
s(I23
I16
tp4297
(dp4298
ssg606
(dp4299
(I28
I21
tp4300
(dp4301
s(I23
I16
tp4302
(dp4303
s(I2
I21
tp4304
(dp4305
s(I7
I16
tp4306
g3630
ssg608
(dp4307
(I3
I8
tp4308
(dp4309
s(I19
I8
tp4310
(dp4311
s(I24
I13
tp4312
(dp4313
s(I24
I29
tp4314
(dp4315
ssg610
(dp4316
(I8
I17
tp4317
(dp4318
s(I13
I22
tp4319
(dp4320
ssg612
(dp4321
(I16
I24
tp4322
g3667
s(I11
I3
tp4323
(dp4324
s(I11
I19
tp4325
g3180
ssg614
(dp4326
(I1
I10
tp4327
(dp4328
s(I22
I15
tp4329
(dp4330
s(I27
I10
tp4331
g3266
s(I6
I15
tp4332
(dp4333
ssg616
(dp4334
(I20
I9
tp4335
(dp4336
s(I25
I30
tp4337
(dp4338
s(I4
I9
tp4339
(dp4340
s(I25
I14
tp4341
(dp4342
ssg618
(dp4343
(I14
I30
tp4344
(dp4345
s(I19
I9
tp4346
(dp4347
s(I14
I14
tp4348
g3771
ssg620
(dp4349
(I9
I18
tp4350
(dp4351
s(I14
I23
tp4352
(dp4353
ssg622
(dp4354
(I12
I2
tp4355
(dp4356
s(I17
I23
tp4357
g4227
s(I12
I18
tp4358
(dp4359
ssg624
(dp4360
(I26
I15
tp4361
(dp4362
s(I5
I10
tp4363
g2994
s(I0
I15
tp4364
(dp4365
s(I26
I31
tp4366
(dp4367
s(I21
I10
tp4368
(dp4369
s(I0
I31
tp4370
(dp4371
ssg626
(dp4372
(I20
I4
tp4373
g4252
s(I15
I25
tp4374
(dp4375
s(I20
I30
tp4376
g4192
s(I15
I9
tp4377
(dp4378
ssg628
(dp4379
(I10
I15
tp4380
(dp4381
s(I15
I20
tp4382
g4055
ssg630
(dp4383
(I13
I9
tp4384
(dp4385
s(I18
I14
tp4386
(dp4387
ssg632
(dp4388
(I21
I7
tp4389
(dp4390
s(I16
I28
tp4391
(dp4392
s(I16
I12
tp4393
(dp4394
ssg634
(dp4395
(I16
I9
tp4396
g2092
s(I11
I14
tp4397
(dp4398
ssg636
(dp4399
(I14
I4
tp4400
(dp4401
s(I19
I25
tp4402
(dp4403
s(I14
I20
tp4404
(dp4405
ssg638
(dp4406
(I17
I3
tp4407
g3621
s(I22
I24
tp4408
(dp4409
s(I17
I19
tp4410
(dp4411
ssg640
(dp4412
(I12
I13
tp4413
(dp4414
s(I17
I18
tp4415
(dp4416
ssg642
(dp4417
(I20
I2
tp4418
(dp4419
s(I20
I28
tp4420
g3057
s(I15
I7
tp4421
(dp4422
s(I15
I23
tp4423
(dp4424
ssg644
(dp4425
(I23
I15
tp4426
(dp4427
s(I18
I10
tp4428
g2460
ssg646
(dp4429
(I13
I14
tp4430
(dp4431
s(I18
I19
tp4432
g2162
ssg648
(dp4433
(I16
I6
tp4434
(dp4435
s(I21
I27
tp4436
(dp4437
s(I21
I1
tp4438
(dp4439
s(I16
I22
tp4440
g4204
ssg650
(dp4441
(I29
I5
tp4442
(dp4443
s(I8
I0
tp4444
g3138
s(I24
I26
tp4445
(dp4446
s(I3
I21
tp4447
(dp4448
s(I29
I21
tp4449
(dp4450
s(I24
I0
tp4451
(dp4452
s(I8
I26
tp4453
(dp4454
s(I3
I5
tp4455
(dp4456
ssg652
(dp4457
(I14
I3
tp4458
(dp4459
s(I19
I24
tp4460
(dp4461
s(I19
I8
tp4462
(dp4463
s(I14
I29
tp4464
g3426
ssg654
(dp4465
(I29
I11
tp4466
g2372
s(I8
I16
tp4467
(dp4468
s(I13
I11
tp4469
g3821
ssg656
(dp4470
(I11
I21
tp4471
g4311
s(I27
I21
tp4472
(dp4473
s(I6
I0
tp4474
(dp4475
s(I6
I16
tp4476
g4463
ssg658
(dp4477
(I30
I0
tp4478
g4158
s(I9
I21
tp4479
(dp4480
s(I4
I16
tp4481
(dp4482
s(I30
I16
tp4483
g2393
s(I25
I21
tp4484
(dp4485
s(I4
I0
tp4486
(dp4487
ssg660
(dp4488
(I20
I29
tp4489
(dp4490
s(I20
I13
tp4491
(dp4492
s(I15
I8
tp4493
(dp4494
ssg662
(dp4495
(I14
I10
tp4496
(dp4497
s(I9
I31
tp4498
(dp4499
s(I30
I10
tp4500
(dp4501
s(I9
I15
tp4502
g3705
ssg664
(dp4503
(I7
I11
tp4504
(dp4505
s(I28
I16
tp4506
(dp4507
s(I12
I16
tp4508
(dp4509
ssg666
(dp4510
(I31
I7
tp4511
(dp4512
s(I5
I7
tp4513
(dp4514
s(I26
I28
tp4515
g4080
s(I26
I2
tp4516
(dp4517
s(I31
I23
tp4518
g3637
s(I5
I23
tp4519
(dp4520
s(I10
I28
tp4521
(dp4522
s(I10
I2
tp4523
(dp4524
ssg668
(dp4525
(I10
I14
tp4526
g2524
s(I31
I9
tp4527
g3570
s(I10
I30
tp4528
(dp4529
s(I15
I9
tp4530
(dp4531
ssg670
(dp4532
(I13
I15
tp4533
(dp4534
s(I8
I10
tp4535
(dp4536
s(I29
I15
tp4537
(dp4538
ssg672
(dp4539
(I0
I22
tp4540
(dp4541
s(I21
I17
tp4542
g3083
s(I21
I1
tp4543
(dp4544
s(I16
I22
tp4545
g4202
ssg674
(dp4546
(I14
I22
tp4547
(dp4548
s(I30
I22
tp4549
g3604
s(I9
I1
tp4550
(dp4551
s(I9
I17
tp4552
g3747
ssg676
(dp4553
(I22
I12
tp4554
g2503
s(I1
I17
tp4555
(dp4556
s(I17
I17
tp4557
g3106
ssg678
(dp4558
(I31
I25
tp4559
(dp4560
s(I15
I25
tp4561
(dp4562
s(I10
I4
tp4563
(dp4564
s(I10
I20
tp4565
(dp4566
ssg680
(dp4567
(I2
I16
tp4568
g3827
s(I23
I11
tp4569
g3718
s(I18
I16
tp4570
(dp4571
ssg682
(dp4572
(I28
I18
tp4573
(dp4574
s(I7
I13
tp4575
(dp4576
s(I23
I13
tp4577
(dp4578
s(I2
I18
tp4579
g2653
ssg684
(dp4580
(I3
I23
tp4581
(dp4582
s(I24
I2
tp4583
g2950
s(I24
I18
tp4584
(dp4585
s(I19
I23
tp4586
(dp4587
ssg686
(dp4588
(I8
I8
tp4589
(dp4590
s(I13
I29
tp4591
(dp4592
s(I13
I13
tp4593
g2632
ssg688
(dp4594
(I11
I10
tp4595
g4585
s(I16
I5
tp4596
(dp4597
s(I11
I26
tp4598
g2937
s(I16
I31
tp4599
g3961
ssg690
(dp4600
(I1
I13
tp4601
g3858
s(I6
I18
tp4602
g3324
s(I22
I18
tp4603
(dp4604
s(I27
I13
tp4605
(dp4606
ssg692
(dp4607
(I20
I26
tp4608
(dp4609
s(I25
I5
tp4610
(dp4611
s(I20
I0
tp4612
(dp4613
s(I4
I26
tp4614
g4414
s(I25
I21
tp4615
(dp4616
s(I4
I0
tp4617
(dp4618
ssg694
(dp4619
(I9
I29
tp4620
g3144
s(I9
I3
tp4621
g4281
s(I14
I24
tp4622
g4289
s(I14
I8
tp4623
g2579
ssg696
(dp4624
(I17
I6
tp4625
g2762
s(I12
I27
tp4626
(dp4627
s(I12
I11
tp4628
(dp4629
ssg698
(dp4630
(I28
I8
tp4631
(dp4632
s(I2
I8
tp4633
(dp4634
s(I7
I13
tp4635
(dp4636
s(I23
I13
tp4637
(dp4638
ssg700
(dp4639
(I26
I24
tp4640
(dp4641
s(I0
I24
tp4642
(dp4643
s(I21
I29
tp4644
(dp4645
s(I21
I3
tp4646
(dp4647
s(I26
I8
tp4648
(dp4649
s(I0
I8
tp4650
(dp4651
s(I5
I29
tp4652
g3296
s(I5
I3
tp4653
(dp4654
ssg702
(dp4655
(I15
I15
tp4656
g3805
s(I15
I31
tp4657
(dp4658
s(I10
I10
tp4659
(dp4660
ssg704
(dp4661
(I18
I21
tp4662
(dp4663
s(I13
I16
tp4664
g4649
s(I13
I0
tp4665
(dp4666
ssg706
(dp4667
(I8
I24
tp4668
(dp4669
s(I13
I3
tp4670
(dp4671
s(I13
I19
tp4672
(dp4673
ssg708
(dp4674
(I16
I14
tp4675
(dp4676
s(I11
I19
tp4677
g3184
ssg710
(dp4678
(I19
I18
tp4679
g2754
s(I14
I13
tp4680
(dp4681
ssg712
(dp4682
(I14
I2
tp4683
g4328
s(I14
I18
tp4684
(dp4685
s(I9
I23
tp4686
(dp4687
ssg714
(dp4688
(I12
I14
tp4689
(dp4690
s(I17
I9
tp4691
(dp4692
ssg716
(dp4693
(I15
I14
tp4694
(dp4695
s(I20
I19
tp4696
(dp4697
ssg718
(dp4698
(I18
I19
tp4699
g2154
s(I18
I3
tp4700
g3951
s(I23
I24
tp4701
(dp4702
ssg720
(dp4703
(I13
I17
tp4704
(dp4705
s(I18
I12
tp4706
(dp4707
ssg722
(dp4708
(I21
I20
tp4709
(dp4710
s(I16
I15
tp4711
(dp4712
ssg724
(dp4713
(I8
I17
tp4714
(dp4715
s(I24
I17
tp4716
(dp4717
s(I29
I12
tp4718
(dp4719
s(I3
I12
tp4720
(dp4721
ssg726
(dp4722
(I19
I3
tp4723
g4220
s(I14
I24
tp4724
g4286
s(I19
I19
tp4725
(dp4726
ssg728
(dp4727
(I22
I7
tp4728
g2829
s(I17
I28
tp4729
(dp4730
s(I17
I12
tp4731
(dp4732
ssg730
(dp4733
(I6
I9
tp4734
(dp4735
s(I11
I4
tp4736
g2866
s(I11
I30
tp4737
(dp4738
s(I6
I25
tp4739
g4211
s(I27
I4
tp4740
(dp4741
s(I27
I30
tp4742
(dp4743
ssg732
(dp4744
(I9
I14
tp4745
(dp4746
s(I30
I9
tp4747
(dp4748
s(I4
I9
tp4749
(dp4750
s(I25
I14
tp4751
(dp4752
ssg734
(dp4753
(I20
I26
tp4754
(dp4755
s(I15
I5
tp4756
(dp4757
s(I15
I31
tp4758
(dp4759
s(I20
I10
tp4760
(dp4761
ssg736
(dp4762
(I23
I4
tp4763
(dp4764
s(I23
I30
tp4765
(dp4766
s(I18
I25
tp4767
(dp4768
s(I18
I9
tp4769
(dp4770
ssg738
(dp4771
(I12
I23
tp4772
(dp4773
s(I28
I23
tp4774
g3235
s(I7
I18
tp4775
g4761
s(I7
I2
tp4776
(dp4777
ssg740
(dp4778
(I5
I14
tp4779
(dp4780
s(I26
I19
tp4781
(dp4782
s(I31
I14
tp4783
(dp4784
s(I10
I19
tp4785
g2907
ssg742
(dp4786
(I24
I13
tp4787
(dp4788
s(I3
I18
tp4789
(dp4790
s(I29
I18
tp4791
(dp4792
s(I8
I13
tp4793
(dp4794
ssg744
(dp4795
(I29
I24
tp4796
(dp4797
s(I8
I3
tp4798
(dp4799
s(I8
I19
tp4800
(dp4801
s(I13
I24
tp4802
(dp4803
ssg746
(dp4804
(I30
I19
tp4805
(dp4806
s(I25
I14
tp4807
(dp4808
s(I9
I14
tp4809
(dp4810
s(I4
I19
tp4811
g4163
ssg748
(dp4812
(I9
I8
tp4813
(dp4814
s(I30
I13
tp4815
(dp4816
s(I14
I13
tp4817
(dp4818
ssg750
(dp4819
(I1
I26
tp4820
(dp4821
s(I17
I0
tp4822
(dp4823
s(I22
I5
tp4824
g3980
s(I17
I26
tp4825
(dp4826
s(I1
I0
tp4827
g2966
s(I22
I21
tp4828
(dp4829
ssg752
(dp4830
(I10
I13
tp4831
(dp4832
s(I31
I18
tp4833
g2780
s(I15
I18
tp4834
(dp4835
ssg754
(dp4836
(I2
I23
tp4837
g4660
s(I18
I23
tp4838
(dp4839
s(I23
I2
tp4840
(dp4841
s(I23
I18
tp4842
(dp4843
ssg756
(dp4844
(I0
I9
tp4845
g3538
s(I16
I9
tp4846
g2090
s(I21
I30
tp4847
(dp4848
s(I21
I14
tp4849
(dp4850
ssg758
(dp4851
(I3
I16
tp4852
(dp4853
s(I19
I16
tp4854
(dp4855
s(I24
I11
tp4856
g4324
ssg760
(dp4857
(I1
I10
tp4858
g4687
s(I17
I10
tp4859
g3340
s(I22
I15
tp4860
(dp4861
s(I22
I31
tp4862
(dp4863
ssg762
(dp4864
(I11
I17
tp4865
(dp4866
s(I16
I12
tp4867
(dp4868
ssg764
(dp4869
(I22
I25
tp4870
(dp4871
s(I27
I20
tp4872
g3211
s(I1
I4
tp4873
(dp4874
s(I6
I25
tp4875
g4209
s(I27
I4
tp4876
(dp4877
s(I1
I20
tp4878
(dp4879
ssg766
(dp4880
(I20
I17
tp4881
(dp4882
s(I4
I17
tp4883
g3023
s(I25
I12
tp4884
(dp4885
ssg768
(dp4886
(I2
I7
tp4887
g2987
s(I18
I7
tp4888
(dp4889
s(I23
I12
tp4890
g4566
s(I23
I28
tp4891
(dp4892
ssg770
(dp4893
(I12
I28
tp4894
(dp4895
s(I12
I12
tp4896
(dp4897
s(I17
I7
tp4898
(dp4899
ssg772
(dp4900
(I28
I17
tp4901
g4378
s(I23
I22
tp4902
g4531
s(I2
I1
tp4903
(dp4904
s(I28
I1
tp4905
g2699
s(I7
I22
tp4906
g2432
s(I2
I17
tp4907
(dp4908
ssg774
(dp4909
(I0
I1
tp4910
(dp4911
s(I26
I1
tp4912
g4385
s(I21
I22
tp4913
g3966
s(I0
I17
tp4914
g2231
s(I26
I17
tp4915
(dp4916
s(I5
I22
tp4917
(dp4918
ssg776
(dp4919
(I24
I17
tp4920
(dp4921
s(I19
I12
tp4922
(dp4923
s(I3
I12
tp4924
(dp4925
ssg778
(dp4926
(I13
I27
tp4927
(dp4928
s(I18
I6
tp4929
g4782
s(I13
I11
tp4930
g3819
ssg780
(dp4931
(I13
I10
tp4932
(dp4933
s(I8
I15
tp4934
(dp4935
ssg782
(dp4936
(I11
I2
tp4937
(dp4938
s(I11
I28
tp4939
g4074
s(I16
I7
tp4940
g2726
s(I16
I23
tp4941
(dp4942
ssg784
(dp4943
(I14
I18
tp4944
(dp4945
s(I19
I13
tp4946
g2402
ssg786
(dp4947
(I14
I11
tp4948
(dp4949
s(I9
I16
tp4950
(dp4951
ssg788
(dp4952
(I12
I21
tp4953
(dp4954
s(I17
I16
tp4955
(dp4956
s(I17
I0
tp4957
(dp4958
ssg790
(dp4959
(I15
I21
tp4960
(dp4961
s(I20
I16
tp4962
(dp4963
ssg792
(dp4964
(I15
I0
tp4965
g4634
s(I10
I21
tp4966
(dp4967
s(I15
I16
tp4968
(dp4969
ssg794
(dp4970
(I18
I21
tp4971
(dp4972
s(I13
I26
tp4973
(dp4974
s(I18
I5
tp4975
g2796
s(I13
I0
tp4976
(dp4977
ssg796
(dp4978
(I16
I8
tp4979
(dp4980
s(I21
I13
tp4981
g3677
ssg798
(dp4982
(I11
I8
tp4983
g3452
s(I16
I13
tp4984
g4448
s(I16
I29
tp4985
g2807
ssg800
(dp4986
(I19
I10
tp4987
(dp4988
s(I14
I15
tp4989
(dp4990
ssg802
(dp4991
(I22
I18
tp4992
(dp4993
s(I17
I23
tp4994
g4235
ssg804
(dp4995
(I17
I30
tp4996
g3974
s(I17
I14
tp4997
(dp4998
s(I12
I9
tp4999
(dp5000
ssg806
(dp5001
(I27
I9
tp5002
(dp5003
s(I6
I30
tp5004
(dp5005
s(I11
I9
tp5006
(dp5007
s(I6
I14
tp5008
g2740
ssg808
(dp5009
(I15
I24
tp5010
g3443
s(I20
I3
tp5011
g4505
s(I20
I19
tp5012
(dp5013
ssg810
(dp5014
(I18
I22
tp5015
g3128
s(I23
I17
tp5016
(dp5017
ssg812
(dp5018
(I18
I31
tp5019
g2836
s(I18
I15
tp5020
g4520
s(I13
I10
tp5021
(dp5022
ssg814
(dp5023
(I28
I4
tp5024
g3567
s(I28
I30
tp5025
(dp5026
s(I7
I25
tp5027
g2135
s(I12
I4
tp5028
g4882
s(I12
I30
tp5029
(dp5030
s(I7
I9
tp5031
g3933
ssg816
(dp5032
(I26
I14
tp5033
(dp5034
s(I5
I9
tp5035
(dp5036
s(I10
I14
tp5037
g2533
s(I31
I9
tp5038
g3573
ssg818
(dp5039
(I24
I30
tp5040
g4015
s(I3
I25
tp5041
(dp5042
s(I29
I9
tp5043
g3583
s(I24
I4
tp5044
g4088
s(I8
I30
tp5045
(dp5046
s(I3
I9
tp5047
(dp5048
s(I29
I25
tp5049
(dp5050
s(I8
I4
tp5051
(dp5052
ssg820
(dp5053
(I13
I7
tp5054
(dp5055
s(I8
I28
tp5056
(dp5057
s(I29
I7
tp5058
g4710
s(I8
I12
tp5059
g2492
ssg822
(dp5060
(I25
I15
tp5061
g2279
s(I30
I20
tp5062
g4730
s(I4
I20
tp5063
g3914
s(I9
I15
tp5064
g3707
ssg824
(dp5065
(I30
I14
tp5066
g2333
s(I9
I19
tp5067
g2561
s(I14
I14
tp5068
g3762
ssg826
(dp5069
(I26
I14
tp5070
(dp5071
s(I31
I19
tp5072
(dp5073
s(I10
I14
tp5074
g2526
s(I5
I19
tp5075
(dp5076
ssg828
(dp5077
(I15
I15
tp5078
g3803
s(I31
I15
tp5079
g2360
s(I10
I10
tp5080
g4841
ssg830
(dp5081
(I0
I16
tp5082
(dp5083
s(I16
I16
tp5084
(dp5085
s(I21
I21
tp5086
(dp5087
ssg832
(dp5088
(I1
I11
tp5089
(dp5090
s(I17
I11
tp5091
(dp5092
s(I22
I16
tp5093
(dp5094
ssg834
(dp5095
(I27
I15
tp5096
(dp5097
s(I6
I10
tp5098
(dp5099
s(I1
I15
tp5100
g2687
s(I27
I31
tp5101
g2963
s(I22
I10
tp5102
(dp5103
s(I1
I31
tp5104
g4353
ssg836
(dp5105
(I20
I16
tp5106
(dp5107
s(I25
I11
tp5108
(dp5109
s(I4
I16
tp5110
(dp5111
ssg838
(dp5112
(I18
I18
tp5113
(dp5114
s(I23
I23
tp5115
(dp5116
s(I2
I18
tp5117
g2647
ssg840
(dp5118
(I12
I21
tp5119
(dp5120
s(I17
I16
tp5121
(dp5122
ssg842
(dp5123
(I28
I30
tp5124
(dp5125
s(I2
I30
tp5126
g3242
s(I23
I9
tp5127
g2515
s(I28
I14
tp5128
(dp5129
s(I2
I14
tp5130
(dp5131
s(I7
I9
tp5132
g3931
ssg844
(dp5133
(I21
I15
tp5134
g2477
s(I5
I15
tp5135
g3889
s(I0
I10
tp5136
(dp5137
s(I26
I10
tp5138
g3535
ssg846
(dp5139
(I24
I22
tp5140
(dp5141
s(I3
I17
tp5142
g2723
s(I19
I17
tp5143
g4738
ssg848
(dp5144
(I18
I13
tp5145
(dp5146
s(I13
I18
tp5147
g3514
ssg850
(dp5148
(I13
I17
tp5149
(dp5150
s(I8
I12
tp5151
g2488
ssg852
(dp5152
(I16
I19
tp5153
(dp5154
s(I11
I14
tp5155
(dp5156
ssg854
(dp5157
(I20
I12
tp5158
(dp5159
s(I4
I12
tp5160
g2692
s(I25
I17
tp5161
(dp5162
ssg856
(dp5163
(I14
I11
tp5164
(dp5165
s(I14
I27
tp5166
(dp5167
s(I19
I6
tp5168
g3333
ssg858
(dp5169
(I14
I12
tp5170
g4874
s(I9
I17
tp5171
g3745
ssg860
(dp5172
(I12
I15
tp5173
(dp5174
s(I17
I20
tp5175
g2124
ssg862
(dp5176
(I21
I15
tp5177
g2481
s(I5
I15
tp5178
g3887
s(I26
I20
tp5179
(dp5180
s(I0
I20
tp5181
(dp5182
ssg864
(dp5183
(I15
I12
tp5184
(dp5185
s(I15
I28
tp5186
(dp5187
s(I20
I7
tp5188
g2147
ssg866
(dp5189
(I10
I16
tp5190
(dp5191
s(I15
I11
tp5192
(dp5193
ssg868
(dp5194
(I13
I12
tp5195
(dp5196
s(I18
I17
tp5197
g3384
ssg870
(dp5198
(I16
I17
tp5199
g5050
s(I21
I12
tp5200
(dp5201
ssg872
(dp5202
(I16
I18
tp5203
(dp5204
s(I11
I13
tp5205
(dp5206
ssg874
(dp5207
(I14
I1
tp5208
g2246
s(I14
I17
tp5209
g4030
s(I19
I22
tp5210
g5003
ssg876
(dp5211
(I14
I18
tp5212
(dp5213
s(I19
I13
tp5214
g2410
ssg878
(dp5215
(I22
I19
tp5216
g2140
s(I17
I14
tp5217
(dp5218
ssg880
(dp5219
(I17
I21
tp5220
(dp5221
s(I12
I16
tp5222
(dp5223
ssg882
(dp5224
(I11
I18
tp5225
(dp5226
s(I6
I23
tp5227
g2384
s(I27
I18
tp5228
(dp5229
ssg884
(dp5230
(I15
I13
tp5231
g2616
s(I20
I8
tp5232
g3646
ssg886
(dp5233
(I18
I15
tp5234
g4512
s(I23
I20
tp5235
g3389
ssg888
(dp5236
(I18
I8
tp5237
g3653
s(I18
I24
tp5238
(dp5239
s(I13
I29
tp5240
(dp5241
s(I13
I3
tp5242
(dp5243
ssg890
(dp5244
(I7
I16
tp5245
g3634
s(I28
I11
tp5246
(dp5247
s(I12
I11
tp5248
(dp5249
ssg892
(dp5250
(I3
I0
tp5251
(dp5252
s(I8
I21
tp5253
(dp5254
s(I29
I0
tp5255
g4980
s(I3
I16
tp5256
(dp5257
s(I24
I21
tp5258
g2572
s(I29
I16
tp5259
(dp5260
ssg894
(dp5261
(I19
I23
tp5262
(dp5263
s(I14
I18
tp5264
(dp5265
ssg896
(dp5266
(I8
I21
tp5267
(dp5268
s(I29
I16
tp5269
(dp5270
s(I13
I16
tp5271
g4645
ssg898
(dp5272
(I11
I18
tp5273
(dp5274
s(I27
I18
tp5275
(dp5276
s(I6
I13
tp5277
(dp5278
ssg900
(dp5279
(I4
I29
tp5280
g5221
s(I9
I8
tp5281
(dp5282
s(I30
I29
tp5283
(dp5284
s(I4
I13
tp5285
(dp5286
s(I25
I8
tp5287
(dp5288
s(I30
I13
tp5289
(dp5290
ssg902
(dp5291
(I20
I22
tp5292
(dp5293
s(I15
I17
tp5294
(dp5295
ssg904
(dp5296
(I9
I26
tp5297
g4011
s(I14
I31
tp5298
g2199
s(I14
I5
tp5299
g4604
s(I9
I10
tp5300
(dp5301
s(I30
I31
tp5302
g4993
s(I30
I5
tp5303
g3272
ssg906
(dp5304
(I7
I14
tp5305
(dp5306
s(I28
I19
tp5307
(dp5308
s(I12
I19
tp5309
g3483
ssg908
(dp5310
(I10
I31
tp5311
g5114
s(I10
I5
tp5312
g3431
s(I5
I10
tp5313
g2996
s(I31
I26
tp5314
(dp5315
s(I26
I31
tp5316
(dp5317
s(I26
I5
tp5318
(dp5319
s(I5
I26
tp5320
(dp5321
s(I31
I10
tp5322
(dp5323
ssg910
(dp5324
(I15
I14
tp5325
(dp5326
s(I10
I19
tp5327
g2903
s(I31
I14
tp5328
(dp5329
ssg912
(dp5330
(I13
I20
tp5331
g2297
s(I29
I20
tp5332
g4390
s(I8
I15
tp5333
(dp5334
ssg914
(dp5335
(I0
I17
tp5336
g2235
s(I16
I17
tp5337
g5052
s(I21
I12
tp5338
(dp5339
ssg916
(dp5340
(I17
I14
tp5341
(dp5342
s(I22
I9
tp5343
g4551
s(I1
I14
tp5344
(dp5345
ssg918
(dp5346
(I6
I17
tp5347
(dp5348
s(I1
I22
tp5349
(dp5350
s(I22
I17
tp5351
g3354
s(I27
I22
tp5352
g4345
ssg920
(dp5353
(I18
I19
tp5354
g2158
s(I23
I14
tp5355
(dp5356
s(I2
I19
tp5357
(dp5358
ssg922
(dp5359
(I2
I23
tp5360
g4658
s(I28
I23
tp5361
g3239
s(I23
I18
tp5362
(dp5363
s(I7
I18
tp5364
g4759
ssg924
(dp5365
(I24
I15
tp5366
(dp5367
s(I3
I10
tp5368
(dp5369
s(I19
I10
tp5370
(dp5371
s(I24
I31
tp5372
(dp5373
ssg926
(dp5374
(I8
I3
tp5375
(dp5376
s(I8
I29
tp5377
g5083
s(I13
I8
tp5378
(dp5379
s(I13
I24
tp5380
(dp5381
ssg928
(dp5382
(I16
I0
tp5383
g2377
s(I11
I21
tp5384
g4313
s(I16
I26
tp5385
g4788
s(I11
I5
tp5386
(dp5387
ssg930
(dp5388
(I27
I8
tp5389
(dp5390
s(I1
I8
tp5391
(dp5392
s(I22
I13
tp5393
(dp5394
s(I6
I13
tp5395
(dp5396
ssg932
(dp5397
(I4
I29
tp5398
g5223
s(I20
I3
tp5399
g4509
s(I25
I24
tp5400
(dp5401
s(I20
I29
tp5402
(dp5403
s(I4
I3
tp5404
(dp5405
s(I25
I8
tp5406
(dp5407
ssg934
(dp5408
(I9
I16
tp5409
(dp5410
s(I14
I21
tp5411
(dp5412
ssg936
(dp5413
(I17
I21
tp5414
g5288
s(I12
I16
tp5415
g5407
s(I12
I0
tp5416
(dp5417
ssg938
(dp5418
(I28
I13
tp5419
g3282
s(I2
I13
tp5420
(dp5421
s(I23
I18
tp5422
(dp5423
s(I7
I18
tp5424
g4757
ssg940
(dp5425
(I26
I29
tp5426
(dp5427
s(I0
I13
tp5428
(dp5429
s(I21
I8
tp5430
g2814
s(I26
I13
tp5431
(dp5432
s(I0
I29
tp5433
(dp5434
s(I5
I8
tp5435
g4139
ssg942
(dp5436
(I15
I11
tp5437
(dp5438
s(I20
I6
tp5439
g5308
s(I15
I27
tp5440
(dp5441
ssg944
(dp5442
(I10
I13
tp5443
(dp5444
s(I15
I18
tp5445
(dp5446
ssg946
(dp5447
(I13
I7
tp5448
(dp5449
s(I13
I23
tp5450
g4362
s(I18
I28
tp5451
(dp5452
s(I18
I2
tp5453
(dp5454
ssg948
(dp5455
(I21
I5
tp5456
(dp5457
s(I21
I31
tp5458
g4214
s(I16
I10
tp5459
(dp5460
s(I16
I26
tp5461
g4792
ssg950
(dp5462
(I11
I16
tp5463
(dp5464
s(I16
I11
tp5465
g3308
ssg952
(dp5466
(I14
I22
tp5467
(dp5468
s(I19
I1
tp5469
g3091
s(I19
I27
tp5470
g3032
s(I14
I6
tp5471
(dp5472
ssg954
(dp5473
(I22
I22
tp5474
(dp5475
s(I17
I1
tp5476
g4748
s(I17
I17
tp5477
g3102
ssg956
(dp5478
(I12
I17
tp5479
g2255
s(I17
I12
tp5480
(dp5481
ssg958
(dp5482
(I15
I17
tp5483
(dp5484
s(I20
I22
tp5485
(dp5486
s(I15
I1
tp5487
(dp5488
ssg960
(dp5489
(I23
I25
tp5490
g4269
s(I18
I4
tp5491
(dp5492
s(I18
I20
tp5493
g4260
ssg962
(dp5494
(I13
I12
tp5495
(dp5496
s(I18
I17
tp5497
g3381
ssg964
(dp5498
(I21
I25
tp5499
(dp5500
s(I16
I20
tp5501
g3066
s(I16
I4
tp5502
g4719
ssg966
(dp5503
(I29
I7
tp5504
g4712
s(I8
I2
tp5505
g4275
s(I24
I28
tp5506
g2881
s(I3
I23
tp5507
(dp5508
s(I29
I23
tp5509
(dp5510
s(I24
I2
tp5511
g2952
s(I8
I28
tp5512
(dp5513
s(I3
I7
tp5514
(dp5515
ssg968
(dp5516
(I14
I9
tp5517
(dp5518
s(I19
I14
tp5519
(dp5520
s(I19
I30
tp5521
(dp5522
ssg970
(dp5523
(I17
I11
tp5524
(dp5525
s(I17
I27
tp5526
g4806
s(I22
I6
tp5527
(dp5528
ssg972
(dp5529
(I11
I23
tp5530
g5371
s(I6
I18
tp5531
g3322
s(I6
I2
tp5532
g4988
s(I27
I23
tp5533
(dp5534
ssg974
(dp5535
(I9
I27
tp5536
(dp5537
s(I9
I1
tp5538
g5342
s(I30
I22
tp5539
g3606
s(I25
I27
tp5540
(dp5541
s(I4
I22
tp5542
g4998
s(I25
I1
tp5543
g4111
s(I30
I6
tp5544
g5218
s(I4
I6
tp5545
(dp5546
ssg976
(dp5547
(I20
I31
tp5548
(dp5549
s(I20
I15
tp5550
(dp5551
s(I15
I10
tp5552
g2925
ssg978
(dp5553
(I9
I13
tp5554
g4829
s(I30
I8
tp5555
(dp5556
s(I14
I8
tp5557
g2587
s(I9
I29
tp5558
g3148
ssg980
(dp5559
(I7
I21
tp5560
g4492
s(I12
I0
tp5561
(dp5562
s(I12
I26
tp5563
(dp5564
s(I7
I5
tp5565
(dp5566
s(I28
I0
tp5567
(dp5568
s(I28
I26
tp5569
g4124
ssg982
(dp5570
(I5
I5
tp5571
(dp5572
s(I26
I26
tp5573
g5146
s(I26
I0
tp5574
(dp5575
s(I31
I5
tp5576
g4179
s(I5
I21
tp5577
(dp5578
s(I10
I26
tp5579
g3162
s(I10
I0
tp5580
(dp5581
s(I31
I21
tp5582
g2435
ssg984
(dp5583
(I10
I8
tp5584
(dp5585
s(I31
I29
tp5586
(dp5587
s(I15
I3
tp5588
(dp5589
s(I10
I24
tp5590
g4298
s(I15
I29
tp5591
g4303
s(I31
I3
tp5592
(dp5593
ssg986
(dp5594
(I8
I8
tp5595
(dp5596
s(I13
I13
tp5597
g2634
s(I29
I13
tp5598
(dp5599
ssg988
(dp5600
(I21
I3
tp5601
(dp5602
s(I0
I24
tp5603
(dp5604
s(I16
I24
tp5605
g3665
s(I21
I19
tp5606
(dp5607
ssg990
(dp5608
(I14
I28
tp5609
(dp5610
s(I30
I2
tp5611
g3018
s(I9
I23
tp5612
g4861
s(I30
I28
tp5613
(dp5614
s(I14
I2
tp5615
g4330
s(I9
I7
tp5616
(dp5617
ssg992
(dp5618
(I17
I23
tp5619
g4233
s(I22
I18
tp5620
g5301
s(I22
I2
tp5621
g3696
s(I1
I23
tp5622
(dp5623
ssg994
(dp5624
(I15
I27
tp5625
(dp5626
s(I10
I6
tp5627
g5356
s(I15
I1
tp5628
(dp5629
s(I31
I27
tp5630
g3042
s(I10
I22
tp5631
g3783
s(I31
I1
tp5632
(dp5633
ssg996
(dp5634
(I2
I14
tp5635
(dp5636
s(I23
I9
tp5637
g2521
s(I18
I14
tp5638
(dp5639
ssg998
(dp5640
(I21
I25
tp5641
(dp5642
s(I16
I4
tp5643
g4715
s(I16
I30
tp5644
(dp5645
s(I21
I9
tp5646
(dp5647
s(I0
I4
tp5648
(dp5649
s(I0
I30
tp5650
g4318
ssg1000
(dp5651
(I24
I4
tp5652
g4090
s(I3
I25
tp5653
(dp5654
s(I19
I25
tp5655
(dp5656
s(I24
I20
tp5657
(dp5658
ssg1002
(dp5659
(I13
I15
tp5660
(dp5661
s(I13
I31
tp5662
(dp5663
s(I8
I10
tp5664
(dp5665
ssg1004
(dp5666
(I11
I28
tp5667
g4076
s(I11
I12
tp5668
g5658
s(I16
I7
tp5669
g2728
ssg1006
(dp5670
(I1
I3
tp5671
g4949
s(I22
I24
tp5672
(dp5673
s(I27
I19
tp5674
g5165
s(I1
I19
tp5675
(dp5676
s(I6
I24
tp5677
(dp5678
s(I27
I3
tp5679
g3550
ssg1008
(dp5680
(I4
I28
tp5681
(dp5682
s(I20
I2
tp5683
(dp5684
s(I25
I7
tp5685
g5174
s(I20
I28
tp5686
g3055
s(I4
I2
tp5687
(dp5688
s(I25
I23
tp5689
(dp5690
ssg1010
(dp5691
(I14
I14
tp5692
g3760
s(I9
I9
tp5693
g2510
s(I14
I30
tp5694
g5350
ssg1012
(dp5695
(I12
I25
tp5696
g5162
s(I12
I9
tp5697
(dp5698
s(I17
I30
tp5699
g3971
s(I17
I4
tp5700
g3927
ssg1014
(dp5701
(I23
I15
tp5702
(dp5703
s(I7
I15
tp5704
g2773
s(I28
I10
tp5705
g2351
s(I2
I10
tp5706
g3878
ssg1016
(dp5707
(I0
I22
tp5708
(dp5709
s(I21
I27
tp5710
(dp5711
s(I21
I1
tp5712
(dp5713
s(I26
I22
tp5714
(dp5715
s(I0
I6
tp5716
(dp5717
s(I5
I27
tp5718
g4431
s(I5
I1
tp5719
g2708
s(I26
I6
tp5720
g4133
ssg1018
(dp5721
(I10
I8
tp5722
(dp5723
s(I15
I29
tp5724
g4305
s(I15
I13
tp5725
g2620
ssg1020
(dp5726
(I13
I14
tp5727
g5715
s(I13
I30
tp5728
g4119
s(I18
I9
tp5729
(dp5730
ssg1022
(dp5731
(I13
I5
tp5732
(dp5733
s(I8
I0
tp5734
g3140
s(I8
I26
tp5735
(dp5736
s(I13
I21
tp5737
g5429
ssg1024
(dp5738
(I16
I0
tp5739
g2375
s(I16
I16
tp5740
(dp5741
s(I11
I21
tp5742
g4309
ssg1026
(dp5743
(I19
I20
tp5744
g3918
s(I14
I15
tp5745
(dp5746
ssg1028
(dp5747
(I9
I21
tp5748
(dp5749
s(I14
I16
tp5750
(dp5751
s(I14
I0
tp5752
g5392
ssg1030
(dp5753
(I17
I11
tp5754
(dp5755
s(I12
I16
tp5756
g5405
ssg1032
(dp5757
(I20
I13
tp5758
g5568
s(I15
I8
tp5759
(dp5760
ssg1034
(dp5761
(I15
I23
tp5762
(dp5763
s(I15
I7
tp5764
(dp5765
s(I10
I28
tp5766
(dp5767
s(I10
I2
tp5768
(dp5769
ssg1036
(dp5770
(I13
I15
tp5771
(dp5772
s(I18
I10
tp5773
g2464
ssg1038
(dp5774
(I21
I18
tp5775
(dp5776
s(I16
I13
tp5777
g4443
ssg1040
(dp5778
(I29
I14
tp5779
g4435
s(I8
I19
tp5780
(dp5781
s(I24
I19
tp5782
(dp5783
s(I3
I14
tp5784
(dp5785
ssg1042
(dp5786
(I19
I17
tp5787
g4735
s(I19
I1
tp5788
g3089
s(I14
I22
tp5789
(dp5790
ssg1044
(dp5791
(I17
I18
tp5792
(dp5793
s(I22
I13
tp5794
(dp5795
ssg1046
(dp5796
(I6
I11
tp5797
g4726
s(I6
I27
tp5798
g3073
s(I27
I6
tp5799
g2678
s(I11
I6
tp5800
g4007
ssg1048
(dp5801
(I4
I15
tp5802
(dp5803
s(I30
I15
tp5804
(dp5805
s(I25
I20
tp5806
g4899
s(I9
I20
tp5807
g2873
ssg1050
(dp5808
(I20
I4
tp5809
g4250
s(I20
I20
tp5810
(dp5811
s(I15
I25
tp5812
(dp5813
ssg1052
(dp5814
(I18
I27
tp5815
g5073
s(I23
I6
tp5816
g2846
s(I18
I11
tp5817
(dp5818
ssg1054
(dp5819
(I7
I12
tp5820
g5811
s(I7
I28
tp5821
g4240
s(I12
I7
tp5822
g2897
s(I28
I7
tp5823
(dp5824
ssg1056
(dp5825
(I31
I12
tp5826
g5492
s(I5
I12
tp5827
(dp5828
s(I26
I17
tp5829
(dp5830
s(I10
I17
tp5831
g4040
ssg1058
(dp5832
(I29
I20
tp5833
g4392
s(I3
I20
tp5834
(dp5835
s(I24
I15
tp5836
(dp5837
s(I8
I15
tp5838
(dp5839
ssg1060
(dp5840
(I8
I1
tp5841
(dp5842
s(I8
I17
tp5843
g5647
s(I13
I22
tp5844
(dp5845
s(I29
I22
tp5846
g3254
ssg1062
(dp5847
(I30
I17
tp5848
(dp5849
s(I4
I17
tp5850
g3027
s(I25
I12
tp5851
(dp5852
s(I9
I12
tp5853
(dp5854
ssg1064
(dp5855
(I14
I19
tp5856
g2892
s(I30
I19
tp5857
g5528
s(I9
I14
tp5858
(dp5859
ssg1066
(dp5860
(I5
I22
tp5861
(dp5862
s(I31
I22
tp5863
(dp5864
s(I26
I17
tp5865
(dp5866
s(I10
I17
tp5867
g4043
ssg1068
(dp5868
(I10
I15
tp5869
(dp5870
s(I15
I20
tp5871
g4064
s(I31
I20
tp5872
(dp5873
ssg1070
(dp5874
(I23
I0
tp5875
g3995
s(I2
I21
tp5876
g5723
s(I23
I16
tp5877
g5585
s(I18
I21
tp5878
(dp5879
ssg1072
(dp5880
(I0
I11
tp5881
g4669
s(I16
I11
tp5882
g3306
s(I21
I16
tp5883
(dp5884
ssg1074
(dp5885
(I3
I18
tp5886
(dp5887
s(I24
I13
tp5888
g5387
s(I19
I18
tp5889
g2748
ssg1076
(dp5890
(I1
I8
tp5891
g5749
s(I22
I13
tp5892
(dp5893
s(I17
I8
tp5894
g4480
s(I22
I29
tp5895
(dp5896
ssg1078
(dp5897
(I16
I14
tp5898
(dp5899
s(I11
I19
tp5900
g3178
ssg1080
(dp5901
(I27
I26
tp5902
g4945
s(I1
I26
tp5903
(dp5904
s(I6
I31
tp5905
g5265
s(I22
I5
tp5906
g3982
s(I27
I10
tp5907
g3264
s(I1
I10
tp5908
g4685
s(I22
I31
tp5909
(dp5910
s(I6
I5
tp5911
g5213
ssg1082
(dp5912
(I25
I14
tp5913
(dp5914
s(I20
I19
tp5915
(dp5916
s(I4
I19
tp5917
g4165
ssg1084
(dp5918
(I23
I10
tp5919
(dp5920
s(I2
I31
tp5921
(dp5922
s(I18
I5
tp5923
g2798
s(I23
I26
tp5924
g2171
s(I18
I31
tp5925
g2840
s(I2
I5
tp5926
g4130
ssg1086
(dp5927
(I12
I18
tp5928
(dp5929
s(I17
I13
tp5930
g2419
ssg1088
(dp5931
(I2
I19
tp5932
(dp5933
s(I7
I24
tp5934
(dp5935
s(I28
I3
tp5936
g3871
s(I2
I3
tp5937
g5193
s(I23
I24
tp5938
(dp5939
s(I28
I19
tp5940
g5438
ssg1090
(dp5941
(I26
I15
tp5942
g5449
s(I5
I20
tp5943
g3046
s(I21
I20
tp5944
g5055
s(I0
I15
tp5945
(dp5946
ssg1092
(dp5947
(I24
I19
tp5948
(dp5949
s(I19
I14
tp5950
(dp5951
s(I3
I14
tp5952
(dp5953
ssg1094
(dp5954
(I13
I9
tp5955
g4916
s(I18
I30
tp5956
g5866
s(I18
I4
tp5957
g5830
s(I13
I25
tp5958
g3232
ssg1096
(dp5959
(I8
I17
tp5960
g5649
s(I13
I12
tp5961
(dp5962
ssg1098
(dp5963
(I16
I14
tp5964
(dp5965
s(I11
I9
tp5966
(dp5967
ssg1100
(dp5968
(I4
I15
tp5969
(dp5970
s(I20
I15
tp5971
(dp5972
s(I25
I20
tp5973
g4895
ssg1102
(dp5974
(I14
I20
tp5975
(dp5976
s(I19
I15
tp5977
g3618
ssg1104
(dp5978
(I14
I9
tp5979
(dp5980
s(I9
I14
tp5981
(dp5982
ssg1106
(dp5983
(I17
I18
tp5984
(dp5985
s(I17
I2
tp5986
(dp5987
s(I12
I23
tp5988
(dp5989
ssg1108
(dp5990
(I20
I18
tp5991
(dp5992
s(I15
I23
tp5993
(dp5994
ssg1110
(dp5995
(I15
I14
tp5996
(dp5997
s(I10
I19
tp5998
g2905
ssg1112
(dp5999
(I18
I3
tp6000
g3953
s(I18
I19
tp6001
g2156
s(I13
I24
tp6002
(dp6003
ssg1114
(dp6004
(I16
I22
tp6005
g4198
s(I21
I17
tp6006
g3079
ssg1116
(dp6007
(I11
I10
tp6008
g4582
s(I16
I15
tp6009
g5508
s(I16
I31
tp6010
g3956
ssg1118
(dp6011
(I19
I8
tp6012
g4475
s(I14
I13
tp6013
(dp6014
ssg1120
(dp6015
(I17
I21
tp6016
g5284
s(I22
I16
tp6017
(dp6018
ssg1122
(dp6019
(I12
I29
tp6020
g2959
s(I17
I24
tp6021
g2824
s(I17
I8
tp6022
g4482
s(I12
I3
tp6023
g5111
ssg1124
(dp6024
(I27
I11
tp6025
(dp6026
s(I6
I16
tp6027
g4461
s(I11
I11
tp6028
(dp6029
ssg1126
(dp6030
(I20
I13
tp6031
g5566
s(I15
I18
tp6032
(dp6033
ssg1128
(dp6034
(I18
I16
tp6035
(dp6036
s(I23
I11
tp6037
g3716
ssg1130
(dp6038
(I18
I29
tp6039
g3988
s(I18
I13
tp6040
g5578
s(I13
I8
tp6041
(dp6042
ssg1132
(dp6043
(I7
I11
tp6044
g5013
s(I28
I6
tp6045
g4697
s(I12
I6
tp6046
g5916
s(I7
I27
tp6047
g3351
ssg1134
(dp6048
(I24
I6
tp6049
g5154
s(I3
I11
tp6050
g2673
s(I29
I11
tp6051
g2370
s(I8
I6
tp6052
(dp6053
s(I3
I27
tp6054
(dp6055
s(I29
I27
tp6056
g4146
ssg1136
(dp6057
(I19
I18
tp6058
g2758
s(I14
I13
tp6059
(dp6060
ssg1138
(dp6061
(I29
I31
tp6062
(dp6063
s(I13
I5
tp6064
(dp6065
s(I8
I10
tp6066
(dp6067
s(I8
I26
tp6068
(dp6069
s(I13
I31
tp6070
(dp6071
s(I29
I5
tp6072
g5776
ssg1140
(dp6073
(I4
I10
tp6074
g5985
s(I30
I26
tp6075
g5793
s(I25
I31
tp6076
g4050
s(I25
I5
tp6077
(dp6078
s(I4
I26
tp6079
g4416
s(I30
I10
tp6080
(dp6081
s(I9
I31
tp6082
(dp6083
s(I9
I5
tp6084
(dp6085
ssg1142
(dp6086
(I14
I12
tp6087
g4871
s(I9
I17
tp6088
g3741
s(I30
I12
tp6089
g3555
ssg1144
(dp6090
(I5
I17
tp6091
(dp6092
s(I31
I17
tp6093
g4768
s(I10
I12
tp6094
g3724
s(I26
I12
tp6095
g2312
ssg1146
(dp6096
(I10
I20
tp6097
g4892
s(I31
I15
tp6098
g2358
s(I15
I15
tp6099
g3800
ssg1148
(dp6100
(I21
I23
tp6101
(dp6102
s(I0
I18
tp6103
(dp6104
s(I16
I18
tp6105
(dp6106
ssg1150
(dp6107
(I22
I22
tp6108
(dp6109
s(I1
I17
tp6110
(dp6111
s(I17
I17
tp6112
g3096
ssg1152
(dp6113
(I6
I8
tp6114
(dp6115
s(I1
I13
tp6116
g3860
s(I27
I13
tp6117
(dp6118
s(I22
I8
tp6119
(dp6120
s(I1
I29
tp6121
g5412
s(I27
I29
tp6122
(dp6123
ssg1154
(dp6124
(I2
I16
tp6125
g3825
s(I23
I21
tp6126
(dp6127
s(I18
I16
tp6128
(dp6129
ssg1156
(dp6130
(I7
I3
tp6131
g2066
s(I2
I8
tp6132
g4969
s(I23
I29
tp6133
(dp6134
s(I28
I8
tp6135
(dp6136
s(I23
I3
tp6137
(dp6138
s(I2
I24
tp6139
(dp6140
s(I7
I29
tp6141
(dp6142
s(I28
I24
tp6143
g2982
ssg1158
(dp6144
(I26
I8
tp6145
g4666
s(I0
I8
tp6146
(dp6147
s(I5
I13
tp6148
g4977
s(I21
I13
tp6149
g3681
ssg1160
(dp6150
(I24
I8
tp6151
(dp6152
s(I3
I3
tp6153
g5464
s(I19
I29
tp6154
g4170
s(I24
I24
tp6155
(dp6156
s(I19
I3
tp6157
g4222
s(I3
I29
tp6158
(dp6159
ssg1162
(dp6160
(I18
I11
tp6161
(dp6162
s(I13
I16
tp6163
g4641
ssg1164
(dp6164
(I8
I14
tp6165
g3686
s(I13
I19
tp6166
(dp6167
ssg1166
(dp6168
(I11
I0
tp6169
(dp6170
s(I11
I16
tp6171
g6152
s(I16
I21
tp6172
(dp6173
ssg1168
(dp6174
(I25
I19
tp6175
g4627
s(I4
I14
tp6176
g3868
s(I20
I14
tp6177
g2444
ssg1170
(dp6178
(I19
I8
tp6179
g4473
s(I14
I29
tp6180
g3424
s(I14
I13
tp6181
(dp6182
ssg1172
(dp6183
(I9
I13
tp6184
g4821
s(I14
I18
tp6185
g5904
ssg1174
(dp6186
(I12
I13
tp6187
g4611
s(I17
I18
tp6188
g6078
ssg1176
(dp6189
(I21
I13
tp6190
g3672
s(I26
I18
tp6191
(dp6192
s(I0
I18
tp6193
(dp6194
s(I5
I13
tp6195
g4974
ssg1178
(dp6196
(I15
I14
tp6197
(dp6198
s(I20
I9
tp6199
(dp6200
s(I15
I30
tp6201
g2215
ssg1180
(dp6202
(I10
I14
tp6203
g2528
s(I15
I9
tp6204
g4904
ssg1182
(dp6205
(I18
I15
tp6206
g4517
s(I13
I10
tp6207
(dp6208
ssg1184
(dp6209
(I21
I10
tp6210
(dp6211
s(I16
I31
tp6212
g3958
s(I16
I15
tp6213
g5510
ssg1186
(dp6214
(I11
I15
tp6215
g2556
s(I16
I20
tp6216
g3068
ssg1188
(dp6217
(I14
I3
tp6218
(dp6219
s(I14
I19
tp6220
g2890
s(I19
I24
tp6221
g6026
ssg1190
(dp6222
(I22
I17
tp6223
g3361
s(I17
I12
tp6224
(dp6225
ssg1192
(dp6226
(I12
I18
tp6227
(dp6228
s(I17
I23
tp6229
g4237
ssg1194
(dp6230
(I15
I4
tp6231
g2284
s(I15
I20
tp6232
g4062
s(I20
I25
tp6233
g2083
ssg1196
(dp6234
(I20
I10
tp6235
g4777
s(I15
I15
tp6236
g3811
ssg1198
(dp6237
(I23
I14
tp6238
g5633
s(I18
I9
tp6239
(dp6240
ssg1200
(dp6241
(I13
I17
tp6242
(dp6243
s(I18
I22
tp6244
g3120
ssg1202
(dp6245
(I12
I13
tp6246
g4609
s(I28
I13
tp6247
g3284
s(I7
I18
tp6248
g4755
ssg1204
(dp6249
(I3
I2
tp6250
g2325
s(I29
I18
tp6251
g5460
s(I8
I23
tp6252
(dp6253
s(I3
I18
tp6254
(dp6255
s(I29
I2
tp6256
g3893
s(I24
I23
tp6257
g3755
ssg1206
(dp6258
(I14
I16
tp6259
(dp6260
s(I19
I21
tp6261
(dp6262
ssg1208
(dp6263
(I13
I14
tp6264
g5711
s(I29
I14
tp6265
g4437
s(I8
I19
tp6266
(dp6267
ssg1210
(dp6268
(I11
I20
tp6269
(dp6270
s(I6
I15
tp6271
(dp6272
s(I27
I20
tp6273
g3213
ssg1212
(dp6274
(I4
I19
tp6275
g4167
s(I30
I3
tp6276
(dp6277
s(I25
I24
tp6278
(dp6279
s(I4
I3
tp6280
g5755
s(I30
I19
tp6281
g5525
s(I9
I24
tp6282
g5092
ssg1214
(dp6283
(I15
I11
tp6284
g5935
s(I20
I16
tp6285
(dp6286
ssg1216
(dp6287
(I30
I3
tp6288
(dp6289
s(I9
I8
tp6290
(dp6291
s(I30
I29
tp6292
g6018
s(I14
I3
tp6293
(dp6294
s(I9
I24
tp6295
g5094
s(I14
I29
tp6296
g3428
ssg1218
(dp6297
(I12
I13
tp6298
g4613
s(I28
I13
tp6299
g3286
s(I7
I8
tp6300
(dp6301
ssg1220
(dp6302
(I31
I8
tp6303
(dp6304
s(I26
I29
tp6305
(dp6306
s(I26
I3
tp6307
g3247
s(I5
I24
tp6308
g2363
s(I31
I24
tp6309
g6036
s(I10
I29
tp6310
g6129
s(I10
I3
tp6311
g4571
s(I5
I8
tp6312
g4137
ssg1222
(dp6313
(I31
I8
tp6314
(dp6315
s(I10
I13
tp6316
(dp6317
s(I15
I8
tp6318
(dp6319
s(I10
I29
tp6320
g6127
ssg1224
(dp6321
(I13
I18
tp6322
g3518
s(I29
I18
tp6323
g5457
s(I8
I13
tp6324
(dp6325
ssg1226
(dp6326
(I21
I14
tp6327
(dp6328
s(I0
I19
tp6329
g3455
s(I16
I19
tp6330
g6053
ssg1228
(dp6331
(I9
I2
tp6332
(dp6333
s(I9
I18
tp6334
(dp6335
s(I14
I23
tp6336
g5103
s(I30
I23
tp6337
(dp6338
ssg1230
(dp6339
(I22
I15
tp6340
g5617
s(I17
I20
tp6341
g2130
s(I1
I20
tp6342
(dp6343
ssg1232
(dp6344
(I22
I15
tp6345
g5610
s(I6
I15
tp6346
(dp6347
s(I1
I20
tp6348
(dp6349
s(I27
I20
tp6350
g3215
ssg1234
(dp6351
(I23
I12
tp6352
g4564
s(I18
I17
tp6353
g3377
s(I2
I17
tp6354
(dp6355
ssg1236
(dp6356
(I7
I12
tp6357
g5813
s(I23
I12
tp6358
g4562
s(I28
I17
tp6359
g4375
s(I2
I17
tp6360
(dp6361
ssg1238
(dp6362
(I24
I17
tp6363
(dp6364
s(I24
I1
tp6365
g5967
s(I19
I22
tp6366
g5007
s(I3
I22
tp6367
g3006
ssg1240
(dp6368
(I13
I10
tp6369
(dp6370
s(I13
I26
tp6371
g6194
s(I8
I5
tp6372
g2183
s(I8
I31
tp6373
g6104
ssg1242
(dp6374
(I11
I7
tp6375
(dp6376
s(I16
I28
tp6377
g5837
s(I16
I2
tp6378
g3592
s(I11
I23
tp6379
g5367
ssg1244
(dp6380
(I6
I19
tp6381
(dp6382
s(I22
I19
tp6383
g2144
s(I1
I14
tp6384
(dp6385
s(I27
I14
tp6386
g5472
ssg1246
(dp6387
(I25
I10
tp6388
g4359
s(I4
I5
tp6389
g2342
s(I20
I31
tp6390
(dp6391
s(I25
I26
tp6392
g5929
s(I20
I5
tp6393
(dp6394
s(I4
I31
tp6395
g6228
ssg1248
(dp6396
(I14
I27
tp6397
(dp6398
s(I14
I11
tp6399
g5676
s(I9
I6
tp6400
g3416
ssg1250
(dp6401
(I17
I1
tp6402
g4752
s(I17
I27
tp6403
g4808
s(I12
I6
tp6404
g5914
s(I12
I22
tp6405
g4342
ssg1252
(dp6406
(I2
I15
tp6407
g5765
s(I7
I20
tp6408
(dp6409
s(I28
I15
tp6410
g4422
s(I23
I20
tp6411
g3391
ssg1254
(dp6412
(I0
I27
tp6413
g6167
s(I26
I27
tp6414
(dp6415
s(I5
I6
tp6416
g3578
s(I0
I11
tp6417
g4673
s(I26
I11
tp6418
(dp6419
s(I21
I6
tp6420
g2178
ssg1256
(dp6421
(I15
I16
tp6422
g6140
s(I10
I11
tp6423
(dp6424
ssg1258
(dp6425
(I18
I0
tp6426
(dp6427
s(I18
I26
tp6428
(dp6429
s(I13
I5
tp6430
(dp6431
s(I13
I21
tp6432
g5432
ssg1260
(dp6433
(I8
I21
tp6434
(dp6435
s(I13
I0
tp6436
g6147
s(I13
I16
tp6437
g4651
ssg1262
(dp6438
(I16
I8
tp6439
g5260
s(I16
I24
tp6440
g3669
s(I21
I29
tp6441
g5270
s(I21
I3
tp6442
(dp6443
ssg1264
(dp6444
(I11
I18
tp6445
(dp6446
s(I16
I13
tp6447
g4456
ssg1266
(dp6448
(I14
I8
tp6449
g2577
s(I19
I13
tp6450
g2400
ssg1268
(dp6451
(I22
I28
tp6452
g4244
s(I17
I23
tp6453
g4229
s(I22
I2
tp6454
g3698
s(I17
I7
tp6455
g5805
ssg1270
(dp6456
(I17
I14
tp6457
g5546
s(I12
I19
tp6458
g3479
ssg1272
(dp6459
(I15
I3
tp6460
(dp6461
s(I20
I24
tp6462
g5247
s(I15
I19
tp6463
g3167
ssg1274
(dp6464
(I18
I22
tp6465
g3122
s(I23
I27
tp6466
g5329
s(I18
I6
tp6467
g4784
s(I23
I1
tp6468
(dp6469
ssg1276
(dp6470
(I18
I15
tp6471
g4514
s(I13
I20
tp6472
g2291
ssg1278
(dp6473
(I21
I23
tp6474
(dp6475
s(I16
I2
tp6476
g3590
s(I16
I18
tp6477
(dp6478
ssg1280
(dp6479
(I29
I9
tp6480
g3581
s(I8
I14
tp6481
g3690
s(I3
I9
tp6482
(dp6483
s(I24
I14
tp6484
g2238
ssg1282
(dp6485
(I19
I28
tp6486
(dp6487
s(I14
I7
tp6488
g3469
s(I19
I12
tp6489
(dp6490
ssg1284
(dp6491
(I22
I4
tp6492
(dp6493
s(I22
I30
tp6494
g3117
s(I17
I9
tp6495
(dp6496
s(I17
I25
tp6497
g5849
ssg1286
(dp6498
(I6
I4
tp6499
(dp6500
s(I11
I25
tp6501
g4923
s(I27
I25
tp6502
(dp6503
s(I6
I20
tp6504
g6490
ssg1288
(dp6505
(I30
I20
tp6506
g4732
s(I4
I4
tp6507
g5481
s(I25
I25
tp6508
g2913
s(I30
I4
tp6509
g6225
s(I4
I20
tp6510
g3912
s(I9
I25
tp6511
(dp6512
ssg1290
(dp6513
(I15
I4
tp6514
g2288
s(I20
I9
tp6515
(dp6516
s(I15
I30
tp6517
g2217
s(I20
I25
tp6518
g2085
ssg1292
(dp6519
(I23
I7
tp6520
g5873
s(I18
I12
tp6521
(dp6522
s(I18
I28
tp6523
(dp6524
ssg1294
(dp6525
(I12
I2
tp6526
(dp6527
s(I28
I28
tp6528
(dp6529
s(I7
I7
tp6530
(dp6531
s(I28
I2
tp6532
(dp6533
s(I12
I28
tp6534
g5972
s(I7
I23
tp6535
g5551
ssg1296
(dp6536
(I26
I24
tp6537
g6162
s(I31
I19
tp6538
g5818
s(I5
I19
tp6539
(dp6540
s(I10
I24
tp6541
g4294
s(I31
I3
tp6542
(dp6543
s(I5
I3
tp6544
(dp6545
ssg1298
(dp6546
(I10
I10
tp6547
g4843
s(I31
I5
tp6548
g4181
s(I15
I31
tp6549
g5363
s(I10
I26
tp6550
g3164
s(I15
I5
tp6551
g5423
s(I31
I31
tp6552
(dp6553
ssg1300
(dp6554
(I13
I1
tp6555
(dp6556
s(I8
I22
tp6557
g4850
s(I13
I27
tp6558
(dp6559
s(I29
I1
tp6560
(dp6561
s(I8
I6
tp6562
g6328
s(I29
I27
tp6563
g4144
ssg1302
(dp6564
(I0
I0
tp6565
g3837
s(I21
I21
tp6566
(dp6567
s(I16
I26
tp6568
g4794
s(I16
I0
tp6569
g2379
s(I21
I5
tp6570
g6325
s(I0
I26
tp6571
(dp6572
ssg1304
(dp6573
(I30
I26
tp6574
g5795
s(I30
I0
tp6575
g4160
s(I9
I21
tp6576
g5893
s(I14
I26
tp6577
g3155
s(I14
I0
tp6578
g5394
s(I9
I5
tp6579
(dp6580
ssg1306
(dp6581
(I1
I21
tp6582
g2599
s(I22
I0
tp6583
g4814
s(I22
I16
tp6584
g6291
s(I17
I21
tp6585
g5282
ssg1308
(dp6586
(I10
I0
tp6587
(dp6588
s(I31
I21
tp6589
g2437
s(I15
I21
tp6590
(dp6591
s(I10
I16
tp6592
(dp6593
ssg1310
(dp6594
(I2
I28
tp6595
g4381
s(I18
I2
tp6596
(dp6597
s(I23
I23
tp6598
(dp6599
s(I18
I28
tp6600
(dp6601
s(I2
I2
tp6602
(dp6603
s(I23
I7
tp6604
g5870
ssg1312
(dp6605
(I0
I6
tp6606
(dp6607
s(I21
I27
tp6608
g6267
s(I21
I11
tp6609
g4801
s(I16
I6
tp6610
g5781
ssg1314
(dp6611
(I24
I6
tp6612
g5156
s(I3
I1
tp6613
g4398
s(I19
I27
tp6614
g3034
s(I24
I22
tp6615
(dp6616
s(I19
I1
tp6617
g3093
s(I3
I27
tp6618
(dp6619
ssg1316
(dp6620
(I17
I5
tp6621
(dp6622
s(I22
I26
tp6623
(dp6624
s(I17
I31
tp6625
(dp6626
s(I1
I5
tp6627
(dp6628
s(I22
I10
tp6629
g6335
s(I1
I31
tp6630
g4351
ssg1318
(dp6631
(I16
I9
tp6632
g2096
s(I11
I30
tp6633
g5141
s(I11
I14
tp6634
g6616
ssg1320
(dp6635
(I27
I1
tp6636
g2328
s(I22
I22
tp6637
(dp6638
s(I1
I17
tp6639
(dp6640
s(I27
I17
tp6641
g4100
s(I6
I22
tp6642
g5518
s(I1
I1
tp6643
g5980
ssg1322
(dp6644
(I25
I17
tp6645
g5698
s(I25
I1
tp6646
g4113
s(I4
I22
tp6647
g5000
s(I20
I22
tp6648
(dp6649
ssg1324
(dp6650
(I14
I28
tp6651
g6349
s(I14
I12
tp6652
g4879
s(I9
I7
tp6653
g6343
ssg1326
(dp6654
(I17
I10
tp6655
g3346
s(I12
I15
tp6656
g5690
s(I12
I31
tp6657
g4095
ssg1328
(dp6658
(I28
I4
tp6659
g3565
s(I2
I20
tp6660
(dp6661
s(I7
I25
tp6662
g2133
s(I28
I20
tp6663
g5185
s(I2
I4
tp6664
(dp6665
s(I23
I25
tp6666
g4267
ssg1330
(dp6667
(I21
I25
tp6668
(dp6669
s(I26
I20
tp6670
(dp6671
s(I0
I20
tp6672
(dp6673
s(I5
I25
tp6674
g5496
s(I26
I4
tp6675
g5196
s(I0
I4
tp6676
g5962
ssg1332
(dp6677
(I15
I27
tp6678
(dp6679
s(I10
I6
tp6680
g5358
s(I15
I11
tp6681
g5933
ssg1334
(dp6682
(I18
I7
tp6683
(dp6684
s(I13
I12
tp6685
g6671
s(I13
I28
tp6686
g5180
ssg1336
(dp6687
(I13
I7
tp6688
g5946
s(I13
I23
tp6689
g4365
s(I8
I2
tp6690
g4277
s(I8
I28
tp6691
(dp6692
ssg1338
(dp6693
(I11
I23
tp6694
g5369
s(I16
I18
tp6695
(dp6696
s(I16
I2
tp6697
g3588
ssg1340
(dp6698
(I14
I17
tp6699
g4022
s(I19
I12
tp6700
g6503
ssg1342
(dp6701
(I9
I27
tp6702
(dp6703
s(I9
I1
tp6704
g5345
s(I14
I6
tp6705
g6385
s(I14
I22
tp6706
(dp6707
ssg1344
(dp6708
(I12
I26
tp6709
(dp6710
s(I17
I5
tp6711
(dp6712
s(I17
I21
tp6713
g5286
s(I12
I0
tp6714
(dp6715
ssg1346
(dp6716
(I20
I15
tp6717
g6533
s(I15
I10
tp6718
g2921
ssg1348
(dp6719
(I10
I0
tp6720
(dp6721
s(I15
I21
tp6722
(dp6723
s(I15
I5
tp6724
g5421
s(I10
I26
tp6725
g3160
ssg1350
(dp6726
(I18
I8
tp6727
g3659
s(I13
I13
tp6728
g2642
ssg1352
(dp6729
(I16
I11
tp6730
g3316
s(I21
I16
tp6731
(dp6732
ssg1354
(dp6733
(I16
I24
tp6734
g3663
s(I16
I8
tp6735
g5257
s(I11
I3
tp6736
g4853
s(I11
I29
tp6737
(dp6738
ssg1356
(dp6739
(I14
I28
tp6740
g6347
s(I14
I2
tp6741
g4333
s(I19
I7
tp6742
g6272
s(I19
I23
tp6743
(dp6744
ssg1358
(dp6745
(I22
I11
tp6746
g3413
s(I17
I16
tp6747
(dp6748
ssg1360
(dp6749
(I11
I8
tp6750
g3448
s(I27
I8
tp6751
(dp6752
s(I6
I29
tp6753
g6262
s(I6
I13
tp6754
(dp6755
ssg1362
(dp6756
(I4
I13
tp6757
g6712
s(I9
I18
tp6758
g6622
s(I25
I18
tp6759
(dp6760
s(I30
I13
tp6761
(dp6762
ssg1364
(dp6763
(I15
I27
tp6764
(dp6765
s(I20
I22
tp6766
(dp6767
s(I20
I6
tp6768
g5306
s(I15
I1
tp6769
(dp6770
ssg1366
(dp6771
(I18
I21
tp6772
(dp6773
s(I23
I16
tp6774
g5587
ssg1368
(dp6775
(I28
I9
tp6776
g5486
s(I7
I14
tp6777
g6767
s(I12
I9
tp6778
g6649
s(I7
I30
tp6779
g5293
ssg1370
(dp6780
(I10
I15
tp6781
g6597
s(I26
I15
tp6782
g5454
s(I5
I10
tp6783
g2992
s(I31
I10
tp6784
(dp6785
ssg1372
(dp6786
(I8
I17
tp6787
g5645
s(I24
I17
tp6788
(dp6789
s(I3
I22
tp6790
g3004
s(I29
I22
tp6791
g3256
ssg1374
(dp6792
(I29
I10
tp6793
g6475
s(I13
I10
tp6794
(dp6795
s(I8
I31
tp6796
g6102
s(I8
I15
tp6797
(dp6798
ssg1376
(dp6799
(I9
I18
tp6800
g6626
s(I25
I18
tp6801
(dp6802
s(I4
I23
tp6803
(dp6804
s(I30
I23
tp6805
(dp6806
ssg1378
(dp6807
(I14
I17
tp6808
g4026
s(I30
I17
tp6809
g6493
s(I9
I12
tp6810
(dp6811
ssg1380
(dp6812
(I10
I15
tp6813
g6601
s(I26
I15
tp6814
g5452
s(I5
I20
tp6815
g3048
s(I31
I20
tp6816
g6524
ssg1382
(dp6817
(I15
I14
tp6818
(dp6819
s(I31
I14
tp6820
g6469
s(I10
I9
tp6821
g2851
ssg1384
(dp6822
(I21
I18
tp6823
g6069
s(I16
I13
tp6824
g4454
s(I0
I13
tp6825
g5736
ssg1386
(dp6826
(I19
I20
tp6827
g3920
s(I3
I20
tp6828
(dp6829
s(I24
I15
tp6830
g6376
ssg1388
(dp6831
(I22
I19
tp6832
g2138
s(I17
I14
tp6833
g5537
s(I1
I14
tp6834
g6703
ssg1390
(dp6835
(I16
I16
tp6836
(dp6837
s(I11
I21
tp6838
g4315
ssg1392
(dp6839
(I22
I3
tp6840
(dp6841
s(I1
I24
tp6842
(dp6843
s(I6
I29
tp6844
g6260
s(I27
I24
tp6845
g3850
s(I6
I3
tp6846
(dp6847
s(I1
I8
tp6848
g5751
s(I22
I29
tp6849
(dp6850
s(I27
I8
tp6851
(dp6852
ssg1394
(dp6853
(I4
I13
tp6854
g6715
s(I20
I13
tp6855
g5562
s(I25
I8
tp6856
g5417
ssg1396
(dp6857
(I2
I29
tp6858
(dp6859
s(I18
I3
tp6860
g3949
s(I23
I8
tp6861
g6593
s(I18
I29
tp6862
g3985
s(I2
I3
tp6863
g5191
s(I23
I24
tp6864
(dp6865
ssg1398
(dp6866
(I17
I11
tp6867
g6279
s(I12
I16
tp6868
g5401
ssg1400
(dp6869
(I2
I29
tp6870
(dp6871
s(I28
I29
tp6872
g4961
s(I23
I8
tp6873
g6591
s(I2
I13
tp6874
g6723
s(I28
I13
tp6875
g3280
s(I7
I8
tp6876
(dp6877
ssg1402
(dp6878
(I21
I18
tp6879
g6065
s(I5
I18
tp6880
g4187
s(I26
I13
tp6881
g6431
s(I0
I13
tp6882
g5733
ssg1404
(dp6883
(I3
I16
tp6884
g6738
s(I19
I16
tp6885
(dp6886
s(I24
I21
tp6887
g2570
ssg1406
(dp6888
(I13
I23
tp6889
g4367
s(I18
I18
tp6890
g5317
ssg1408
(dp6891
(I13
I14
tp6892
g5717
s(I8
I19
tp6893
g6607
ssg1410
(dp6894
(I16
I16
tp6895
(dp6896
s(I11
I11
tp6897
(dp6898
ssg1412
(dp6899
(I20
I17
tp6900
g5030
s(I25
I22
tp6901
g3796
s(I4
I17
tp6902
g3025
ssg1414
(dp6903
(I19
I17
tp6904
g4743
s(I14
I22
tp6905
(dp6906
ssg1416
(dp6907
(I14
I15
tp6908
(dp6909
s(I9
I20
tp6910
g2876
ssg1418
(dp6911
(I12
I10
tp6912
g3776
s(I17
I15
tp6913
(dp6914
ssg1420
(dp6915
(I26
I23
tp6916
g2658
s(I21
I18
tp6917
g6071
s(I5
I18
tp6918
g4185
s(I0
I23
tp6919
g5663
ssg1422
(dp6920
(I20
I12
tp6921
(dp6922
s(I15
I17
tp6923
(dp6924
ssg1424
(dp6925
(I15
I12
tp6926
g6665
s(I10
I17
tp6927
g4045
ssg1426
(dp6928
(I13
I22
tp6929
(dp6930
s(I18
I1
tp6931
g5036
s(I18
I17
tp6932
g3373
ssg1428
(dp6933
(I21
I15
tp6934
g2475
s(I16
I20
tp6935
g3060
ssg1430
(dp6936
(I16
I17
tp6937
g5042
s(I11
I12
tp6938
g5654
ssg1432
(dp6939
(I14
I19
tp6940
g2886
s(I19
I14
tp6941
(dp6942
ssg1434
(dp6943
(I17
I11
tp6944
g6277
s(I22
I16
tp6945
g6289
ssg1436
(dp6946
(I12
I5
tp6947
(dp6948
s(I17
I26
tp6949
(dp6950
s(I12
I31
tp6951
g4093
s(I17
I10
tp6952
g3337
ssg1438
(dp6953
(I6
I18
tp6954
g3319
s(I27
I13
tp6955
(dp6956
s(I11
I13
tp6957
(dp6958
ssg1440
(dp6959
(I15
I20
tp6960
g4059
s(I20
I15
tp6961
g6531
ssg1442
(dp6962
(I23
I13
tp6963
(dp6964
s(I18
I18
tp6965
g5315
ssg1444
(dp6966
(I13
I6
tp6967
g2933
s(I18
I11
tp6968
g6540
s(I18
I27
tp6969
g5076
ssg1446
(dp6970
(I7
I21
tp6971
g4490
s(I28
I16
tp6972
(dp6973
s(I12
I16
tp6974
g5403
ssg1448
(dp6975
(I24
I8
tp6976
g6173
s(I29
I29
tp6977
g2999
s(I3
I13
tp6978
g3847
s(I8
I8
tp6979
(dp6980
s(I29
I13
tp6981
(dp6982
s(I3
I29
tp6983
(dp6984
ssg1450
(dp6985
(I14
I11
tp6986
g5678
s(I19
I16
tp6987
(dp6988
ssg1452
(dp6989
(I8
I24
tp6990
g5884
s(I29
I29
tp6991
g3001
s(I13
I3
tp6992
(dp6993
s(I8
I8
tp6994
(dp6995
s(I13
I29
tp6996
(dp6997
s(I29
I3
tp6998
g6732
ssg1454
(dp6999
(I27
I13
tp7000
(dp7001
s(I6
I8
tp7002
(dp7003
s(I11
I13
tp7004
(dp7005
ssg1456
(dp7006
(I25
I29
tp7007
g5122
s(I4
I8
tp7008
g4956
s(I9
I3
tp7009
g4283
s(I30
I8
tp7010
(dp7011
s(I9
I29
tp7012
g3146
s(I4
I24
tp7013
g3275
s(I25
I3
tp7014
g2970
s(I30
I24
tp7015
g6748
ssg1458
(dp7016
(I20
I21
tp7017
g2788
s(I15
I16
tp7018
g6142
ssg1460
(dp7019
(I30
I18
tp7020
(dp7021
s(I14
I18
tp7022
g5910
s(I9
I23
tp7023
g4863
ssg1462
(dp7024
(I5
I31
tp7025
g2076
s(I10
I10
tp7026
g4839
s(I31
I15
tp7027
g2356
s(I5
I15
tp7028
g3883
s(I26
I10
tp7029
g3532
s(I31
I31
tp7030
(dp7031
ssg1464
(dp7032
(I10
I22
tp7033
g3785
s(I31
I17
tp7034
g4766
s(I15
I17
tp7035
(dp7036
ssg1466
(dp7037
(I0
I14
tp7038
g2662
s(I21
I9
tp7039
g5842
s(I16
I14
tp7040
(dp7041
ssg1468
(dp7042
(I22
I20
tp7043
(dp7044
s(I17
I15
tp7045
(dp7046
s(I1
I15
tp7047
g2689
ssg1470
(dp7048
(I22
I14
tp7049
(dp7050
s(I1
I19
tp7051
g6398
s(I27
I19
tp7052
g5167
s(I6
I14
tp7053
g2735
ssg1472
(dp7054
(I23
I19
tp7055
g2467
s(I2
I14
tp7056
(dp7057
s(I18
I14
tp7058
(dp7059
ssg1474
(dp7060
(I23
I5
tp7061
g4835
s(I23
I31
tp7062
g3135
s(I28
I10
tp7063
g2349
s(I2
I10
tp7064
g3880
s(I7
I5
tp7065
g6033
s(I7
I31
tp7066
(dp7067
s(I28
I26
tp7068
g4126
s(I2
I26
tp7069
g5446
ssg1476
(dp7070
(I19
I31
tp7071
g5226
s(I24
I26
tp7072
(dp7073
s(I19
I5
tp7074
g5274
s(I3
I31
tp7075
g3259
s(I24
I10
tp7076
(dp7077
s(I3
I5
tp7078
g6446
ssg1478
(dp7079
(I8
I16
tp7080
(dp7081
s(I13
I21
tp7082
g5434
ssg1480
(dp7083
(I11
I2
tp7084
(dp7085
s(I11
I18
tp7086
g7077
s(I16
I23
tp7087
(dp7088
ssg1482
(dp7089
(I25
I29
tp7090
g5120
s(I20
I8
tp7091
g3643
s(I25
I13
tp7092
g3496
s(I4
I8
tp7093
g4954
ssg1484
(dp7094
(I14
I31
tp7095
g2195
s(I19
I10
tp7096
g5534
s(I14
I15
tp7097
(dp7098
ssg1486
(dp7099
(I9
I11
tp7100
(dp7101
s(I14
I16
tp7102
g6843
ssg1488
(dp7103
(I17
I24
tp7104
g2822
s(I12
I19
tp7105
g3481
s(I12
I3
tp7106
g5109
ssg1490
(dp7107
(I26
I16
tp7108
(dp7109
s(I0
I16
tp7110
g5381
s(I21
I11
tp7111
g4803
s(I5
I11
tp7112
g6003
ssg1492
(dp7113
(I20
I29
tp7114
g6973
s(I15
I24
tp7115
g3439
s(I15
I8
tp7116
(dp7117
s(I20
I3
tp7118
g4507
ssg1494
(dp7119
(I15
I23
tp7120
(dp7121
s(I10
I18
tp7122
g5922
ssg1496
(dp7123
(I18
I13
tp7124
g5575
s(I13
I8
tp7125
(dp7126
ssg1498
(dp7127
(I16
I29
tp7128
g2805
s(I16
I13
tp7129
g4450
s(I21
I8
tp7130
g2816
ssg1500
(dp7131
(I16
I22
tp7132
g4200
s(I11
I17
tp7133
(dp7134
ssg1502
(dp7135
(I19
I0
tp7136
g7001
s(I19
I26
tp7137
g6956
s(I14
I21
tp7138
g6118
s(I14
I5
tp7139
g4606
ssg1504
(dp7140
(I17
I2
tp7141
(dp7142
s(I17
I18
tp7143
g6081
s(I22
I23
tp7144
g4501
ssg1506
(dp7145
(I12
I12
tp7146
(dp7147
s(I17
I17
tp7148
g3104
ssg1508
(dp7149
(I15
I6
tp7150
g3507
s(I20
I1
tp7151
g3366
s(I15
I22
tp7152
g5129
s(I20
I27
tp7153
g3303
ssg1510
(dp7154
(I23
I16
tp7155
g5593
s(I18
I11
tp7156
g6543
ssg1512
(dp7157
(I13
I15
tp7158
(dp7159
s(I18
I20
tp7160
g4264
ssg1514
(dp7161
(I21
I28
tp7162
g2108
s(I21
I2
tp7163
g4538
s(I16
I23
tp7164
(dp7165
s(I16
I7
tp7166
g2730
ssg1516
(dp7167
(I8
I25
tp7168
g2860
s(I29
I20
tp7169
g4394
s(I3
I20
tp7170
(dp7171
s(I24
I25
tp7172
g4868
s(I29
I4
tp7173
g2715
s(I3
I4
tp7174
g3547
ssg1518
(dp7175
(I19
I11
tp7176
(dp7177
s(I19
I27
tp7178
g3030
s(I14
I6
tp7179
g6382
ssg1520
(dp7180
(I8
I17
tp7181
g5642
s(I13
I12
tp7182
g6669
s(I29
I12
tp7183
g5500
ssg1522
(dp7184
(I6
I1
tp7185
g3011
s(I27
I22
tp7186
g4347
s(I6
I17
tp7187
(dp7188
s(I11
I22
tp7189
g2226
ssg1524
(dp7190
(I30
I1
tp7191
(dp7192
s(I4
I1
tp7193
g4692
s(I9
I22
tp7194
(dp7195
s(I4
I17
tp7196
g3021
s(I30
I17
tp7197
g6496
s(I25
I22
tp7198
g3792
ssg1526
(dp7199
(I20
I18
tp7200
(dp7201
s(I15
I13
tp7202
g2618
ssg1528
(dp7203
(I9
I30
tp7204
g6109
s(I14
I9
tp7205
g6638
s(I9
I14
tp7206
(dp7207
s(I30
I9
tp7208
g5475
ssg1530
(dp7209
(I12
I15
tp7210
g5684
s(I28
I15
tp7211
g4419
s(I7
I10
tp7212
(dp7213
ssg1532
(dp7214
(I31
I6
tp7215
g2073
s(I26
I27
tp7216
(dp7217
s(I26
I1
tp7218
g4387
s(I5
I6
tp7219
g3576
s(I31
I22
tp7220
(dp7221
s(I10
I27
tp7222
g7059
s(I10
I1
tp7223
g5639
s(I5
I22
tp7224
(dp7225
ssg1534
(dp7226
(I10
I15
tp7227
g6599
s(I10
I31
tp7228
g5116
s(I31
I10
tp7229
(dp7230
s(I15
I10
tp7231
g2919
ssg1536
(dp7232
(I8
I11
tp7233
g5602
s(I29
I16
tp7234
g6443
s(I13
I16
tp7235
g4647
ssg1538
(dp7236
(I16
I21
tp7237
g6980
s(I0
I21
tp7238
g4590
s(I21
I0
tp7239
g5596
s(I21
I16
tp7240
g6995
ssg1540
(dp7241
(I9
I0
tp7242
g2190
s(I30
I21
tp7243
(dp7244
s(I9
I16
tp7245
(dp7246
s(I14
I21
tp7247
g6120
ssg1542
(dp7248
(I1
I18
tp7249
g3486
s(I17
I18
tp7250
g6085
s(I22
I13
tp7251
g6580
ssg1544
(dp7252
(I10
I5
tp7253
g3433
s(I15
I0
tp7254
g4638
s(I31
I26
tp7255
g6964
s(I10
I21
tp7256
(dp7257
s(I31
I0
tp7258
g3291
s(I15
I26
tp7259
g4578
ssg1546
(dp7260
(I2
I15
tp7261
g5769
s(I18
I15
tp7262
g4524
s(I23
I10
tp7263
(dp7264
ssg1548
(dp7265
(I7
I14
tp7266
g6765
s(I2
I19
tp7267
g6679
s(I23
I14
tp7268
g5626
s(I28
I19
tp7269
g5441
ssg1550
(dp7270
(I3
I24
tp7271
g4151
s(I19
I24
tp7272
g6029
s(I24
I19
tp7273
(dp7274
s(I24
I3
tp7275
g6898
ssg1552
(dp7276
(I13
I28
tp7277
g5182
s(I13
I12
tp7278
g6673
s(I8
I7
tp7279
g3405
ssg1554
(dp7280
(I16
I30
tp7281
g6789
s(I11
I9
tp7282
g6364
s(I16
I4
tp7283
g4717
s(I11
I25
tp7284
g4921
ssg1556
(dp7285
(I6
I17
tp7286
(dp7287
s(I27
I12
tp7288
g4401
s(I22
I17
tp7289
g3356
s(I1
I12
tp7290
(dp7291
ssg1558
(dp7292
(I20
I25
tp7293
g2081
s(I4
I25
tp7294
g7147
s(I25
I4
tp7295
g3223
s(I25
I20
tp7296
g4897
ssg1560
(dp7297
(I14
I25
tp7298
(dp7299
s(I9
I30
tp7300
g6111
s(I14
I9
tp7301
g6640
s(I9
I4
tp7302
g4556
ssg1562
(dp7303
(I12
I20
tp7304
g3205
s(I12
I4
tp7305
g4885
s(I17
I25
tp7306
g5852
ssg1564
(dp7307
(I7
I14
tp7308
g6770
s(I28
I9
tp7309
g5488
s(I23
I14
tp7310
g5629
s(I2
I9
tp7311
(dp7312
ssg1566
(dp7313
(I5
I30
tp7314
g6243
s(I5
I4
tp7315
g4705
s(I0
I25
tp7316
g5150
s(I26
I9
tp7317
(dp7318
s(I21
I30
tp7319
(dp7320
s(I21
I4
tp7321
g3398
s(I0
I9
tp7322
g3542
s(I26
I25
tp7323
g3187
ssg1568
(dp7324
(I15
I30
tp7325
g2213
s(I15
I14
tp7326
(dp7327
s(I10
I9
tp7328
g2853
ssg1570
(dp7329
(I18
I24
tp7330
(dp7331
s(I13
I19
tp7332
g6419
s(I13
I3
tp7333
(dp7334
ssg1572
(dp7335
(I13
I2
tp7336
g5137
s(I13
I18
tp7337
g3524
s(I8
I23
tp7338
(dp7339
ssg1574
(dp7340
(I11
I20
tp7341
(dp7342
s(I16
I15
tp7343
g5515
ssg1576
(dp7344
(I19
I15
tp7345
g3616
s(I14
I10
tp7346
(dp7347
ssg1578
(dp7348
(I14
I19
tp7349
g2894
s(I14
I3
tp7350
(dp7351
s(I9
I24
tp7352
g5090
ssg1580
(dp7353
(I17
I5
tp7354
g6762
s(I22
I26
tp7355
(dp7356
s(I22
I0
tp7357
g4816
s(I17
I21
tp7358
g5290
ssg1582
(dp7359
(I12
I13
tp7360
g4618
s(I17
I8
tp7361
g4487
ssg1584
(dp7362
(I20
I18
tp7363
(dp7364
s(I15
I13
tp7365
g2614
ssg1586
(dp7366
(I18
I0
tp7367
(dp7368
s(I23
I21
tp7369
g6315
s(I18
I16
tp7370
g6304
ssg1588
(dp7371
(I18
I13
tp7372
g5572
s(I13
I18
tp7373
g3512
ssg1590
(dp7374
(I16
I0
tp7375
g2381
s(I16
I16
tp7376
(dp7377
s(I21
I21
tp7378
(dp7379
ssg1592
(dp7380
(I24
I16
tp7381
g3465
s(I8
I16
tp7382
(dp7383
s(I3
I11
tp7384
g2675
s(I29
I11
tp7385
g2368
ssg1594
(dp7386
(I19
I18
tp7387
g2752
s(I14
I23
tp7388
g5099
s(I19
I2
tp7389
(dp7390
ssg1596
(dp7391
(I17
I31
tp7392
g6806
s(I22
I10
tp7393
g6338
s(I17
I15
tp7394
(dp7395
ssg1598
(dp7396
(I27
I1
tp7397
g2330
s(I27
I27
tp7398
(dp7399
s(I6
I6
tp7400
g6942
s(I11
I1
tp7401
g3736
s(I11
I27
tp7402
g5951
s(I6
I22
tp7403
g5520
ssg1600
(dp7404
(I4
I10
tp7405
g5987
s(I25
I15
tp7406
g2273
s(I30
I10
tp7407
g7142
s(I9
I15
tp7408
g3709
ssg1602
(dp7409
(I15
I6
tp7410
g3503
s(I20
I11
tp7411
(dp7412
s(I20
I27
tp7413
g3299
ssg1604
(dp7414
(I18
I30
tp7415
g5864
s(I18
I14
tp7416
g7221
s(I23
I9
tp7417
g2517
ssg1606
(dp7418
(I28
I22
tp7419
g6200
s(I7
I17
tp7420
g6516
s(I12
I22
tp7421
g4336
s(I7
I1
tp7422
(dp7423
ssg1608
(dp7424
(I5
I17
tp7425
(dp7426
s(I26
I22
tp7427
g5730
s(I31
I17
tp7428
g4770
s(I5
I1
tp7429
g2710
s(I10
I22
tp7430
g3787
s(I31
I1
tp7431
g6240
ssg1610
(dp7432
(I24
I12
tp7433
(dp7434
s(I3
I17
tp7435
g2718
s(I29
I17
tp7436
g2316
s(I8
I12
tp7437
g2490
ssg1612
(dp7438
(I13
I25
tp7439
g3230
s(I8
I20
tp7440
g3729
s(I29
I25
tp7441
g5201
s(I8
I4
tp7442
g5339
ssg1614
(dp7443
(I21
I23
tp7444
g6798
s(I16
I2
tp7445
g3594
s(I16
I28
tp7446
g5839
s(I21
I7
tp7447
g5334
s(I0
I2
tp7448
g4935
s(I0
I28
tp7449
g3193
ssg1616
(dp7450
(I9
I11
tp7451
(dp7452
s(I14
I16
tp7453
g6841
s(I30
I16
tp7454
g2391
ssg1618
(dp7455
(I22
I22
tp7456
g7207
s(I1
I27
tp7457
(dp7458
s(I17
I1
tp7459
g4746
s(I22
I6
tp7460
g5859
s(I17
I27
tp7461
g4810
s(I1
I1
tp7462
g5982
ssg1620
(dp7463
(I31
I23
tp7464
g3640
s(I10
I18
tp7465
g5920
s(I15
I23
tp7466
(dp7467
s(I10
I2
tp7468
g7264
ssg1622
(dp7469
(I18
I0
tp7470
(dp7471
s(I23
I5
tp7472
g4832
s(I18
I26
tp7473
(dp7474
s(I2
I0
tp7475
(dp7476
s(I23
I21
tp7477
g6317
s(I2
I26
tp7478
g5444
ssg1624
(dp7479
(I0
I8
tp7480
g6435
s(I16
I8
tp7481
g5254
s(I21
I29
tp7482
g5268
s(I21
I13
tp7483
g3674
ssg1626
(dp7484
(I19
I13
tp7485
g2406
s(I24
I8
tp7486
g6170
s(I3
I13
tp7487
g3842
ssg1628
(dp7488
(I1
I3
tp7489
g4951
s(I22
I24
tp7490
(dp7491
s(I17
I29
tp7492
(dp7493
s(I17
I3
tp7494
g3623
s(I22
I8
tp7495
g7246
s(I1
I29
tp7496
g5410
ssg1630
(dp7497
(I11
I16
tp7498
g6156
s(I16
I11
tp7499
g3312
ssg1632
(dp7500
(I27
I23
tp7501
g7098
s(I22
I2
tp7502
g3700
s(I1
I23
tp7503
(dp7504
s(I6
I28
tp7505
g2103
s(I27
I7
tp7506
g5746
s(I6
I2
tp7507
g4990
s(I1
I7
tp7508
g6909
s(I22
I28
tp7509
g4246
ssg1634
(dp7510
(I20
I24
tp7511
g5249
s(I25
I19
tp7512
g4629
s(I25
I3
tp7513
g2972
s(I4
I24
tp7514
g3277
ssg1636
(dp7515
(I23
I15
tp7516
(dp7517
s(I18
I10
tp7518
g2462
s(I23
I31
tp7519
g3132
s(I2
I10
tp7520
g3876
ssg1638
(dp7521
(I12
I13
tp7522
g4616
s(I12
I29
tp7523
g2955
s(I17
I8
tp7524
g4485
ssg1640
(dp7525
(I2
I6
tp7526
g5997
s(I7
I1
tp7527
(dp7528
s(I7
I27
tp7529
g3349
s(I28
I22
tp7530
g6198
s(I2
I22
tp7531
g7327
s(I23
I1
tp7532
g6819
s(I23
I27
tp7533
g5326
s(I28
I6
tp7534
g4695
ssg1642
(dp7535
(I21
I23
tp7536
g6795
s(I0
I18
tp7537
g6370
s(I26
I2
tp7538
g6208
s(I5
I23
tp7539
g5022
s(I0
I2
tp7540
g4933
s(I26
I18
tp7541
(dp7542
ssg1644
(dp7543
(I15
I9
tp7544
g4908
s(I10
I30
tp7545
(dp7546
s(I10
I4
tp7547
g6355
s(I15
I25
tp7548
g6361
ssg1646
(dp7549
(I18
I31
tp7550
g2834
s(I13
I26
tp7551
g6192
s(I18
I5
tp7552
g2794
s(I13
I10
tp7553
g7542
ssg1648
(dp7554
(I8
I14
tp7555
g3684
s(I13
I9
tp7556
g4911
ssg1650
(dp7557
(I11
I25
tp7558
g4925
s(I16
I4
tp7559
g4721
s(I16
I20
tp7560
g3062
ssg1652
(dp7561
(I14
I19
tp7562
g2884
s(I19
I14
tp7563
g7399
ssg1654
(dp7564
(I14
I20
tp7565
(dp7566
s(I9
I25
tp7567
(dp7568
s(I14
I4
tp7569
g7291
ssg1656
(dp7570
(I17
I7
tp7571
g5803
s(I12
I2
tp7572
(dp7573
s(I12
I28
tp7574
g5970
s(I17
I23
tp7575
g4231
ssg1658
(dp7576
(I15
I20
tp7577
g4057
s(I20
I15
tp7578
g6529
ssg1660
(dp7579
(I10
I24
tp7580
g4296
s(I15
I3
tp7581
(dp7582
s(I15
I19
tp7583
g3171
ssg1662
(dp7584
(I13
I1
tp7585
(dp7586
s(I18
I22
tp7587
g3126
s(I18
I6
tp7588
g4780
s(I13
I27
tp7589
(dp7590
ssg1664
(dp7591
(I16
I9
tp7592
g2094
s(I21
I14
tp7593
g6561
ssg1666
(dp7594
(I16
I10
tp7595
g6255
s(I11
I31
tp7596
(dp7597
s(I16
I26
tp7598
g4790
s(I11
I5
tp7599
g5887
ssg1668
(dp7600
(I14
I26
tp7601
g3157
s(I19
I5
tp7602
g5278
s(I14
I0
tp7603
g5396
s(I19
I21
tp7604
g6755
ssg1670
(dp7605
(I22
I17
tp7606
g3359
s(I17
I22
tp7607
(dp7608
ssg1672
(dp7609
(I17
I29
tp7610
(dp7611
s(I17
I13
tp7612
g2425
s(I12
I8
tp7613
g2590
ssg1674
(dp7614
(I6
I31
tp7615
g5263
s(I11
I10
tp7616
g4587
s(I6
I15
tp7617
g6744
s(I27
I10
tp7618
g3268
ssg1676
(dp7619
(I15
I21
tp7620
g6877
s(I20
I0
tp7621
g6301
s(I20
I16
tp7622
(dp7623
ssg1678
(dp7624
(I18
I23
tp7625
g7031
s(I23
I18
tp7626
g6553
ssg1680
(dp7627
(I28
I29
tp7628
g4963
s(I7
I24
tp7629
g6286
s(I28
I3
tp7630
g3873
s(I12
I29
tp7631
g2957
s(I7
I8
tp7632
g7623
s(I12
I3
tp7633
g5107
ssg1682
(dp7634
(I10
I13
tp7635
g7471
s(I31
I8
tp7636
g7368
s(I26
I13
tp7637
g6427
s(I5
I8
tp7638
g4141
ssg1684
(dp7639
(I3
I24
tp7640
g4149
s(I8
I3
tp7641
(dp7642
s(I24
I29
tp7643
g6837
s(I29
I8
tp7644
g7377
s(I3
I8
tp7645
g5741
s(I24
I3
tp7646
g6896
s(I8
I29
tp7647
g5085
s(I29
I24
tp7648
(dp7649
ssg1686
(dp7650
(I8
I29
tp7651
g5087
s(I8
I13
tp7652
g6567
s(I29
I8
tp7653
g7379
s(I13
I8
tp7654
(dp7655
ssg1688
(dp7656
(I4
I21
tp7657
g7611
s(I9
I16
tp7658
g7493
s(I25
I16
tp7659
g2606
s(I30
I21
tp7660
(dp7661
ssg1690
(dp7662
(I9
I18
tp7663
g6624
s(I30
I13
tp7664
g7356
s(I14
I13
tp7665
(dp7666
ssg1692
(dp7667
(I10
I13
tp7668
g7474
s(I5
I18
tp7669
g4189
s(I26
I13
tp7670
g6429
s(I31
I18
tp7671
g2776
ssg1694
(dp7672
(I15
I16
tp7673
g6138
s(I10
I11
tp7674
(dp7675
s(I31
I16
tp7676
(dp7677
ssg1696
(dp7678
(I21
I20
tp7679
g5057
s(I16
I15
tp7680
g5513
s(I0
I15
tp7681
g6692
ssg1698
(dp7682
(I22
I17
tp7683
g3363
s(I17
I12
tp7684
g6512
s(I1
I12
tp7685
g7568
ssg1700
(dp7686
(I11
I23
tp7687
g5373
s(I16
I18
tp7688
(dp7689
ssg1702
(dp7690
(I6
I9
tp7691
g5790
s(I27
I14
tp7692
g5468
s(I1
I14
tp7693
g6707
s(I22
I9
tp7694
g4548
s(I27
I30
tp7695
g6906
s(I1
I30
tp7696
(dp7697
ssg1704
(dp7698
(I25
I10
tp7699
g4356
s(I4
I15
tp7700
g7573
s(I20
I15
tp7701
g6527
ssg1706
(dp7702
(I23
I22
tp7703
g4529
s(I18
I17
tp7704
g3375
s(I2
I17
tp7705
g7546
ssg1708
(dp7706
(I12
I22
tp7707
g4338
s(I17
I17
tp7708
g3098
ssg1710
(dp7709
(I28
I31
tp7710
g5994
s(I23
I10
tp7711
g7467
s(I2
I31
tp7712
g7121
s(I28
I15
tp7713
g4424
s(I7
I10
tp7714
(dp7715
s(I2
I15
tp7716
g5763
ssg1712
(dp7717
(I0
I11
tp7718
g4671
s(I26
I11
tp7719
g7334
s(I21
I16
tp7720
g6993
s(I5
I16
tp7721
g5243
ssg1714
(dp7722
(I3
I18
tp7723
g7597
s(I19
I18
tp7724
g2750
s(I24
I23
tp7725
g3757
ssg1716
(dp7726
(I18
I16
tp7727
g6306
s(I13
I21
tp7728
g5427
ssg1718
(dp7729
(I8
I11
tp7730
g5604
s(I13
I16
tp7731
g4643
ssg1720
(dp7732
(I16
I18
tp7733
(dp7734
s(I11
I13
tp7735
(dp7736
ssg1722
(dp7737
(I25
I16
tp7738
g2608
s(I20
I11
tp7739
(dp7740
s(I4
I11
tp7741
g2979
ssg1724
(dp7742
(I19
I29
tp7743
g4172
s(I19
I3
tp7744
g4224
s(I14
I8
tp7745
g2583
s(I14
I24
tp7746
g4291
ssg1726
(dp7747
(I9
I18
tp7748
g6628
s(I14
I13
tp7749
(dp7750
ssg1728
(dp7751
(I17
I13
tp7752
g2421
s(I12
I8
tp7753
g2596
ssg1730
(dp7754
(I26
I21
tp7755
g3834
s(I0
I21
tp7756
g4592
s(I21
I16
tp7757
g6997
s(I5
I16
tp7758
g5241
ssg1732
(dp7759
(I15
I19
tp7760
g3173
s(I20
I14
tp7761
g2450
ssg1734
(dp7762
(I10
I15
tp7763
g6603
s(I15
I10
tp7764
g2923
ssg1736
(dp7765
(I13
I15
tp7766
(dp7767
s(I18
I20
tp7768
g4262
ssg1738
(dp7769
(I16
I18
tp7770
(dp7771
s(I21
I13
tp7772
g3679
ssg1740
(dp7773
(I16
I19
tp7774
g6055
s(I11
I14
tp7775
g6619
ssg1742
(dp7776
(I14
I17
tp7777
g4019
s(I19
I12
tp7778
g6500
ssg1744
(dp7779
(I17
I9
tp7780
g7192
s(I22
I14
tp7781
(dp7782
ssg1746
(dp7783
(I12
I15
tp7784
g5682
s(I17
I20
tp7785
g2122
ssg1748
(dp7786
(I6
I20
tp7787
g6487
s(I27
I15
tp7788
(dp7789
s(I11
I15
tp7790
g2550
ssg1750
(dp7791
(I15
I14
tp7792
g7528
s(I20
I9
tp7793
g7423
ssg1752
(dp7794
(I18
I12
tp7795
(dp7796
s(I23
I17
tp7797
(dp7798
ssg1754
(dp7799
(I13
I30
tp7800
g4121
s(I13
I4
tp7801
g4067
s(I18
I9
tp7802
g7426
s(I18
I25
tp7803
g6092
ssg1756
(dp7804
(I12
I18
tp7805
g6391
s(I7
I23
tp7806
g5549
s(I28
I18
tp7807
(dp7808
ssg1758
(dp7809
(I3
I15
tp7810
g4942
s(I29
I31
tp7811
(dp7812
s(I8
I10
tp7813
(dp7814
s(I3
I31
tp7815
g3261
s(I29
I15
tp7816
g7165
s(I24
I10
tp7817
g7088
ssg1760
(dp7818
(I14
I17
tp7819
g4024
s(I19
I22
tp7820
g5005
ssg1762
(dp7821
(I8
I22
tp7822
g4848
s(I29
I17
tp7823
g2320
s(I13
I17
tp7824
g7320
ssg1764
(dp7825
(I11
I15
tp7826
g2554
s(I6
I10
tp7827
g7390
s(I27
I15
tp7828
(dp7829
ssg1766
(dp7830
(I30
I14
tp7831
g2335
s(I4
I30
tp7832
(dp7833
s(I9
I9
tp7834
g2506
s(I4
I14
tp7835
g3863
s(I30
I30
tp7836
g7608
s(I25
I9
tp7837
(dp7838
ssg1768
(dp7839
(I20
I23
tp7840
g3944
s(I15
I18
tp7841
g7067
ssg1770
(dp7842
(I9
I21
tp7843
g5896
s(I14
I16
tp7844
g6850
s(I30
I16
tp7845
g2397
ssg1772
(dp7846
(I12
I18
tp7847
g6394
s(I7
I13
tp7848
(dp7849
s(I28
I18
tp7850
(dp7851
ssg1774
(dp7852
(I10
I8
tp7853
g5879
s(I31
I29
tp7854
g6773
s(I5
I13
tp7855
g4972
s(I26
I8
tp7856
g4663
s(I31
I13
tp7857
(dp7858
s(I5
I29
tp7859
g3294
ssg1776
(dp7860
(I10
I16
tp7861
g6865
s(I31
I11
tp7862
g4702
s(I15
I11
tp7863
g5939
ssg1778
(dp7864
(I0
I16
tp7865
g5376
s(I16
I16
tp7866
g7642
s(I21
I11
tp7867
g4799
ssg1780
(dp7868
(I17
I15
tp7869
(dp7870
s(I22
I10
tp7871
g6333
s(I1
I15
tp7872
g2683
ssg1782
(dp7873
(I6
I12
tp7874
g3903
s(I27
I17
tp7875
g4103
s(I1
I17
tp7876
g7299
s(I22
I12
tp7877
g2499
ssg1784
(dp7878
(I23
I17
tp7879
(dp7880
s(I2
I12
tp7881
g2705
s(I18
I12
tp7882
(dp7883
ssg1786
(dp7884
(I23
I15
tp7885
(dp7886
s(I28
I20
tp7887
g5187
s(I2
I20
tp7888
(dp7889
s(I7
I15
tp7890
g2768
ssg1788
(dp7891
(I3
I7
tp7892
g7342
s(I24
I28
tp7893
g2879
s(I24
I12
tp7894
(dp7895
s(I19
I7
tp7896
g6270
ssg1790
(dp7897
(I13
I23
tp7898
g4371
s(I8
I18
tp7899
g2544
ssg1792
(dp7900
(I16
I25
tp7901
g7434
s(I11
I20
tp7902
g7895
s(I11
I4
tp7903
g2868
ssg1794
(dp7904
(I27
I11
tp7905
g6219
s(I1
I11
tp7906
g7351
s(I6
I16
tp7907
g4459
s(I22
I16
tp7908
g6294
ssg1796
(dp7909
(I4
I10
tp7910
g5989
s(I25
I31
tp7911
g4052
s(I25
I15
tp7912
g2277
s(I20
I10
tp7913
g4773
ssg1798
(dp7914
(I9
I17
tp7915
g3749
s(I14
I22
tp7916
g7697
ssg1800
(dp7917
(I12
I17
tp7918
g2265
s(I12
I1
tp7919
g4034
s(I17
I22
tp7920
g7838
ssg1802
(dp7921
(I5
I9
tp7922
g6930
s(I26
I14
tp7923
(dp7924
s(I0
I14
tp7925
g2664
s(I21
I9
tp7926
g5845
s(I26
I30
tp7927
g2942
s(I0
I30
tp7928
g4320
ssg1804
(dp7929
(I20
I5
tp7930
g7851
s(I20
I31
tp7931
g7808
s(I15
I26
tp7932
g4574
s(I15
I10
tp7933
g2916
ssg1806
(dp7934
(I10
I16
tp7935
g6859
s(I15
I21
tp7936
g6871
ssg1808
(dp7937
(I13
I6
tp7938
g2928
s(I13
I22
tp7939
g7924
s(I18
I27
tp7940
g5071
s(I18
I1
tp7941
g5034
ssg1810
(dp7942
(I21
I6
tp7943
g2176
s(I16
I11
tp7944
g3310
s(I16
I27
tp7945
(dp7946
ssg1812
(dp7947
(I16
I8
tp7948
g5252
s(I11
I13
tp7949
(dp7950
ssg1814
(dp7951
(I14
I23
tp7952
g5097
s(I19
I2
tp7953
g7829
s(I14
I7
tp7954
g3471
s(I19
I28
tp7955
g7789
ssg1816
(dp7956
(I17
I0
tp7957
(dp7958
s(I17
I16
tp7959
g7011
s(I22
I21
tp7960
g5556
ssg1818
(dp7961
(I17
I19
tp7962
(dp7963
s(I12
I14
tp7964
(dp7965
ssg1820
(dp7966
(I20
I21
tp7967
g2784
s(I15
I16
tp7968
g6136
s(I15
I0
tp7969
g4632
ssg1822
(dp7970
(I18
I5
tp7971
g2792
s(I23
I0
tp7972
g3993
s(I18
I21
tp7973
g7858
s(I23
I26
tp7974
g2167
ssg1824
(dp7975
(I13
I13
tp7976
g2640
s(I18
I18
tp7977
g5321
ssg1826
(dp7978
(I21
I26
tp7979
g3327
s(I16
I21
tp7980
g6982
s(I16
I5
tp7981
(dp7982
s(I21
I0
tp7983
g5599
ssg1828
(dp7984
(I29
I6
tp7985
(dp7986
s(I3
I22
tp7987
g3008
s(I8
I1
tp7988
g7041
s(I24
I27
tp7989
g5899
s(I29
I22
tp7990
g3252
s(I3
I6
tp7991
g4676
s(I24
I1
tp7992
g5965
s(I8
I27
tp7993
g4002
ssg1830
(dp7994
(I14
I4
tp7995
g7287
s(I19
I25
tp7996
(dp7997
s(I19
I9
tp7998
g7188
s(I14
I30
tp7999
g5348
ssg1832
(dp8000
(I17
I10
tp8001
g3344
s(I17
I26
tp8002
(dp8003
s(I22
I31
tp8004
g7021
s(I22
I5
tp8005
g3978
ssg1834
(dp8006
(I6
I3
tp8007
(dp8008
s(I6
I19
tp8009
g7177
s(I11
I24
tp8010
(dp8011
s(I27
I24
tp8012
g3852
ssg1836
(dp8013
(I4
I7
tp8014
g3562
s(I9
I2
tp8015
g7870
s(I30
I23
tp8016
g7395
s(I9
I28
tp8017
g7046
s(I4
I23
tp8018
(dp8019
s(I25
I2
tp8020
g6914
s(I30
I7
tp8021
(dp8022
s(I25
I28
tp8023
(dp8024
ssg1838
(dp8025
(I20
I12
tp8026
(dp8027
s(I20
I28
tp8028
g3053
s(I15
I7
tp8029
g6409
ssg1840
(dp8030
(I30
I7
tp8031
(dp8032
s(I14
I7
tp8033
g3473
s(I9
I28
tp8034
g7044
s(I9
I12
tp8035
(dp8036
ssg1842
(dp8037
(I7
I4
tp8038
g3037
s(I7
I20
tp8039
g8027
s(I12
I25
tp8040
g5159
s(I28
I25
tp8041
g6922
ssg1844
(dp8042
(I5
I4
tp8043
g4707
s(I31
I4
tp8044
g7796
s(I10
I25
tp8045
g7883
s(I5
I20
tp8046
g3050
s(I31
I20
tp8047
g6522
s(I26
I25
tp8048
g3189
ssg1846
(dp8049
(I31
I4
tp8050
g7798
s(I15
I30
tp8051
g2211
s(I10
I25
tp8052
g7880
s(I15
I4
tp8053
g2282
s(I31
I30
tp8054
g5017
s(I10
I9
tp8055
g2855
ssg1848
(dp8056
(I8
I9
tp8057
g4544
s(I13
I14
tp8058
g5713
s(I29
I14
tp8059
g4439
ssg1850
(dp8060
(I21
I2
tp8061
g4536
s(I21
I18
tp8062
g6067
s(I16
I23
tp8063
g7814
s(I0
I23
tp8064
g5665
ssg1852
(dp8065
(I30
I27
tp8066
g2745
s(I30
I1
tp8067
g7782
s(I9
I22
tp8068
(dp8069
s(I14
I27
tp8070
g7050
s(I14
I1
tp8071
g2248
s(I9
I6
tp8072
g3420
ssg1854
(dp8073
(I22
I19
tp8074
g2142
s(I22
I3
tp8075
g7452
s(I1
I24
tp8076
g7101
s(I17
I24
tp8077
g2819
ssg1856
(dp8078
(I31
I28
tp8079
g3938
s(I15
I2
tp8080
g5703
s(I10
I7
tp8081
g2204
s(I15
I28
tp8082
g7886
s(I31
I2
tp8083
g4427
s(I10
I23
tp8084
g7517
ssg1858
(dp8085
(I2
I13
tp8086
g6721
s(I23
I8
tp8087
g6588
s(I18
I13
tp8088
g5581
ssg1860
(dp8089
(I16
I3
tp8090
g7383
s(I16
I29
tp8091
g2803
s(I21
I8
tp8092
g2810
s(I0
I3
tp8093
(dp8094
s(I0
I29
tp8095
g7081
s(I21
I24
tp8096
g4468
ssg1862
(dp8097
(I3
I0
tp8098
g7950
s(I19
I26
tp8099
g6958
s(I24
I5
tp8100
g7736
s(I19
I0
tp8101
g7005
s(I3
I26
tp8102
g5206
s(I24
I21
tp8103
g2574
ssg1864
(dp8104
(I8
I9
tp8105
g4541
s(I13
I30
tp8106
g4116
s(I13
I14
tp8107
g5709
ssg1866
(dp8108
(I16
I6
tp8109
g5783
s(I11
I11
tp8110
g7274
s(I11
I27
tp8111
g5949
ssg1868
(dp8112
(I1
I2
tp8113
(dp8114
s(I22
I23
tp8115
g4497
s(I27
I18
tp8116
(dp8117
s(I1
I18
tp8118
g3488
s(I6
I23
tp8119
g2386
s(I27
I2
tp8120
g7347
ssg1870
(dp8121
(I4
I1
tp8122
g4690
s(I20
I1
tp8123
g3368
s(I25
I6
tp8124
(dp8125
s(I4
I27
tp8126
g7965
s(I25
I22
tp8127
g3794
s(I20
I27
tp8128
g3301
ssg1872
(dp8129
(I9
I10
tp8130
g5623
s(I14
I15
tp8131
g7504
s(I14
I31
tp8132
g2201
ssg1874
(dp8133
(I12
I10
tp8134
g3774
s(I17
I31
tp8135
g6802
s(I17
I5
tp8136
g6760
s(I12
I26
tp8137
(dp8138
ssg1876
(dp8139
(I7
I16
tp8140
g3628
s(I2
I11
tp8141
g7582
s(I28
I11
tp8142
g6461
s(I23
I16
tp8143
g5589
ssg1878
(dp8144
(I26
I23
tp8145
g2656
s(I21
I28
tp8146
g2106
s(I21
I2
tp8147
g4534
s(I0
I7
tp8148
g4084
s(I26
I7
tp8149
g7767
s(I5
I28
tp8150
g7159
s(I5
I2
tp8151
g5772
s(I0
I23
tp8152
g5661
ssg1880
(dp8153
(I10
I7
tp8154
g2206
s(I15
I28
tp8155
g7889
s(I15
I12
tp8156
g6661
ssg1882
(dp8157
(I13
I1
tp8158
(dp8159
s(I18
I22
tp8160
g3124
s(I13
I17
tp8161
g7318
ssg1884
(dp8162
(I8
I25
tp8163
g2862
s(I13
I20
tp8164
g2295
s(I13
I4
tp8165
g4071
ssg1886
(dp8166
(I16
I17
tp8167
g5048
s(I16
I1
tp8168
g6483
s(I11
I22
tp8169
g2222
ssg1888
(dp8170
(I14
I12
tp8171
g4877
s(I19
I17
tp8172
g4741
ssg1890
(dp8173
(I14
I17
tp8174
g4028
s(I9
I22
tp8175
(dp8176
s(I14
I1
tp8177
g2250
ssg1892
(dp8178
(I17
I10
tp8179
g3342
s(I12
I15
tp8180
g5688
ssg1894
(dp8181
(I20
I20
tp8182
g5824
s(I15
I15
tp8183
g3809
ssg1896
(dp8184
(I15
I22
tp8185
g5131
s(I10
I27
tp8186
g7057
s(I15
I6
tp8187
g3505
s(I10
I1
tp8188
g5636
ssg1898
(dp8189
(I18
I18
tp8190
g5323
s(I23
I23
tp8191
g7230
s(I18
I2
tp8192
g6785
ssg1900
(dp8193
(I18
I11
tp8194
g6545
s(I13
I16
tp8195
g4654
ssg1902
(dp8196
(I16
I14
tp8197
g7986
s(I21
I19
tp8198
(dp8199
ssg1904
(dp8200
(I24
I18
tp8201
g4597
s(I29
I13
tp8202
g7982
s(I8
I18
tp8203
g2546
s(I3
I13
tp8204
g3844
ssg1906
(dp8205
(I19
I16
tp8206
(dp8207
s(I19
I0
tp8208
g7003
s(I14
I21
tp8209
g6115
ssg1908
(dp8210
(I17
I13
tp8211
g2416
s(I22
I8
tp8212
g7244
s(I17
I29
tp8213
g7661
ssg1910
(dp8214
(I6
I8
tp8215
g8207
s(I11
I3
tp8216
g4855
s(I11
I29
tp8217
g6886
s(I6
I24
tp8218
g6988
s(I27
I3
tp8219
g3552
s(I27
I29
tp8220
(dp8221
ssg1912
(dp8222
(I9
I13
tp8223
g4823
s(I25
I13
tp8224
g3498
s(I30
I8
tp8225
g7958
s(I4
I8
tp8226
g4958
ssg1914
(dp8227
(I20
I21
tp8228
g2786
s(I20
I5
tp8229
g7849
s(I15
I0
tp8230
g4636
s(I15
I26
tp8231
g4576
ssg1916
(dp8232
(I23
I3
tp8233
g7677
s(I18
I8
tp8234
g3655
s(I23
I29
tp8235
(dp8236
s(I18
I24
tp8237
(dp8238
ssg1918
(dp8239
(I7
I3
tp8240
g2068
s(I12
I24
tp8241
g7740
s(I28
I24
tp8242
g2984
s(I7
I19
tp8243
g7412
ssg1920
(dp8244
(I5
I15
tp8245
g3885
s(I10
I20
tp8246
g4889
s(I31
I15
tp8247
g2354
s(I26
I20
tp8248
g6684
ssg1922
(dp8249
(I8
I14
tp8250
g3692
s(I29
I19
tp8251
g7946
s(I3
I19
tp8252
g3896
s(I24
I14
tp8253
g2240
ssg1924
(dp8254
(I13
I23
tp8255
g4369
s(I29
I23
tp8256
g6211
s(I8
I2
tp8257
g4273
s(I8
I18
tp8258
g2542
ssg1926
(dp8259
(I4
I18
tp8260
g6950
s(I30
I18
tp8261
g8003
s(I25
I13
tp8262
g3500
s(I9
I13
tp8263
g4826
ssg1928
(dp8264
(I30
I14
tp8265
g2337
s(I9
I9
tp8266
g2512
s(I14
I14
tp8267
g3769
ssg1930
(dp8268
(I22
I20
tp8269
g8036
s(I1
I25
tp8270
g3220
s(I22
I4
tp8271
g6811
s(I17
I25
tp8272
g5854
ssg1932
(dp8273
(I31
I17
tp8274
g4764
s(I10
I12
tp8275
g3722
s(I15
I17
tp8276
(dp8277
ssg1934
(dp8278
(I23
I19
tp8279
g2471
s(I2
I24
tp8280
g6424
s(I23
I3
tp8281
g7675
s(I18
I24
tp8282
(dp8283
ssg1936
(dp8284
(I21
I15
tp8285
g2479
s(I21
I31
tp8286
g4217
s(I0
I10
tp8287
g7339
s(I16
I10
tp8288
g6253
ssg1938
(dp8289
(I3
I15
tp8290
g4938
s(I24
I10
tp8291
g7085
s(I19
I15
tp8292
g3611
ssg1940
(dp8293
(I22
I14
tp8294
g8069
s(I22
I30
tp8295
g3115
s(I1
I9
tp8296
g8176
s(I17
I9
tp8297
g7195
ssg1942
(dp8298
(I11
I18
tp8299
g7073
s(I16
I13
tp8300
g4446
ssg1944
(dp8301
(I1
I21
tp8302
g2601
s(I27
I21
tp8303
g6182
s(I22
I26
tp8304
g7666
s(I6
I0
tp8305
g6014
s(I1
I5
tp8306
g7750
s(I27
I5
tp8307
g4681
s(I6
I26
tp8308
g6060
s(I22
I0
tp8309
g4818
ssg1946
(dp8310
(I4
I18
tp8311
g6948
s(I25
I13
tp8312
g3494
s(I20
I18
tp8313
(dp8314
ssg1948
(dp8315
(I2
I8
tp8316
g4967
s(I23
I29
tp8317
(dp8318
s(I23
I13
tp8319
g7257
s(I18
I8
tp8320
g3657
ssg1950
(dp8321
(I17
I14
tp8322
g5541
s(I12
I19
tp8323
g3477
ssg1952
(dp8324
(I2
I16
tp8325
g3829
s(I7
I21
tp8326
g4494
s(I28
I16
tp8327
g7117
s(I2
I0
tp8328
(dp8329
s(I23
I21
tp8330
g6319
s(I28
I0
tp8331
g5760
ssg1954
(dp8332
(I0
I0
tp8333
g3839
s(I21
I21
tp8334
g7655
s(I26
I0
tp8335
g7126
s(I0
I16
tp8336
g5379
s(I5
I21
tp8337
g6042
s(I26
I16
tp8338
(dp8339
ssg1956
(dp8340
(I24
I16
tp8341
g3463
s(I3
I11
tp8342
g2671
s(I19
I11
tp8343
g8011
ssg1958
(dp8344
(I18
I29
tp8345
g3990
s(I18
I3
tp8346
g3947
s(I13
I24
tp8347
g7109
s(I13
I8
tp8348
g8339
ssg1960
(dp8349
(I8
I16
tp8350
g8094
s(I13
I11
tp8351
g3817
ssg1962
(dp8352
(I11
I8
tp8353
g3450
s(I16
I13
tp8354
g4452
ssg1964
(dp8355
(I16
I22
tp8356
g4206
s(I11
I1
tp8357
g3738
s(I11
I27
tp8358
g5953
s(I16
I6
tp8359
g5785
ssg1966
(dp8360
(I19
I16
tp8361
g8221
s(I14
I21
tp8362
g6123
ssg1968
(dp8363
(I14
I10
tp8364
g8114
s(I9
I15
tp8365
g3703
ssg1970
(dp8366
(I17
I1
tp8367
g4750
s(I12
I22
tp8368
g4340
s(I17
I17
tp8369
g3108
ssg1972
(dp8370
(I15
I22
tp8371
g5125
s(I20
I17
tp8372
g5026
ssg1974
(dp8373
(I15
I1
tp8374
g7312
s(I10
I22
tp8375
g3789
s(I15
I17
tp8376
(dp8377
ssg1976
(dp8378
(I13
I25
tp8379
g3228
s(I18
I20
tp8380
g4258
s(I18
I4
tp8381
g5828
ssg1978
(dp8382
(I21
I18
tp8383
g6063
s(I16
I23
tp8384
g7812
ssg1980
(dp8385
(I11
I7
tp8386
g6829
s(I16
I12
tp8387
g7171
s(I16
I28
tp8388
g5835
ssg1982
(dp8389
(I14
I16
tp8390
g6847
s(I19
I11
tp8391
g8008
ssg1984
(dp8392
(I22
I15
tp8393
g5614
s(I17
I20
tp8394
g2126
ssg1986
(dp8395
(I12
I10
tp8396
g3778
s(I17
I15
tp8397
g8019
s(I17
I31
tp8398
g6804
ssg1988
(dp8399
(I27
I12
tp8400
g4403
s(I6
I17
tp8401
g7997
s(I11
I12
tp8402
g5656
ssg1990
(dp8403
(I20
I18
tp8404
(dp8405
s(I15
I23
tp8406
g7715
s(I20
I2
tp8407
g7213
ssg1992
(dp8408
(I23
I12
tp8409
g4560
s(I18
I17
tp8410
g3386
ssg1994
(dp8411
(I13
I9
tp8412
g4918
s(I18
I30
tp8413
g5862
s(I18
I14
tp8414
g7225
ssg1996
(dp8415
(I28
I5
tp8416
g7364
s(I28
I31
tp8417
g5992
s(I7
I26
tp8418
g7201
s(I12
I5
tp8419
g8314
s(I12
I31
tp8420
g4097
s(I7
I10
tp8421
g8405
ssg1998
(dp8422
(I29
I26
tp8423
g7771
s(I3
I10
tp8424
g6696
s(I24
I5
tp8425
g7734
s(I8
I31
tp8426
g6106
s(I29
I10
tp8427
g6478
s(I3
I26
tp8428
g5204
s(I8
I5
tp8429
g2185
s(I24
I31
tp8430
g7689
ssg2000
(dp8431
(I13
I6
tp8432
g2931
s(I29
I6
tp8433
g8199
s(I8
I11
tp8434
g5607
s(I8
I27
tp8435
g4000
ssg2002
(dp8436
(I30
I27
tp8437
g2743
s(I25
I6
tp8438
(dp8439
s(I4
I27
tp8440
g7963
s(I30
I11
tp8441
g4411
s(I9
I6
tp8442
g3418
s(I4
I11
tp8443
g2975
ssg2004
(dp8444
(I14
I11
tp8445
g5673
s(I30
I11
tp8446
g4409
s(I9
I16
tp8447
g7491
ssg2006
(dp8448
(I26
I11
tp8449
g7331
s(I10
I11
tp8450
g8283
s(I31
I16
tp8451
g8238
s(I5
I16
tp8452
g5239
ssg2008
(dp8453
(I31
I16
tp8454
g8236
s(I10
I21
tp8455
g8318
s(I15
I16
tp8456
g6134
ssg2010
(dp8457
(I0
I17
tp8458
g2229
s(I16
I17
tp8459
g5046
s(I21
I22
tp8460
g3968
ssg2012
(dp8461
(I1
I18
tp8462
g3491
s(I17
I18
tp8463
g6083
s(I22
I23
tp8464
g4499
ssg2014
(dp8465
(I6
I7
tp8466
g4154
s(I1
I12
tp8467
g7566
s(I27
I12
tp8468
g4405
s(I22
I7
tp8469
g2827
s(I1
I28
tp8470
g2268
s(I27
I28
tp8471
g5976
ssg2016
(dp8472
(I2
I15
tp8473
g5767
s(I18
I15
tp8474
g4522
s(I23
I20
tp8475
g3395
ssg2018
(dp8476
(I12
I20
tp8477
g3208
s(I17
I15
tp8478
g8024
ssg2020
(dp8479
(I23
I4
tp8480
g8277
s(I23
I30
tp8481
g7036
s(I2
I9
tp8482
g8377
s(I28
I9
tp8483
g5484
s(I7
I4
tp8484
g3039
s(I7
I30
tp8485
g5295
s(I2
I25
tp8486
g3529
s(I28
I25
tp8487
g6924
ssg2022
(dp8488
(I0
I9
tp8489
g3540
s(I5
I14
tp8490
g7586
s(I26
I9
tp8491
g8159
s(I21
I14
tp8492
g6556
ssg2024
(dp8493
(I24
I9
tp8494
g3200
s(I19
I4
tp8495
g2117
s(I3
I30
tp8496
g7134
s(I24
I25
tp8497
g4866
s(I3
I4
tp8498
g3545
s(I19
I30
tp8499
(dp8500
ssg2026
(dp8501
(I18
I14
tp8502
g7217
s(I13
I19
tp8503
g6415
ssg2028
(dp8504
(I13
I18
tp8505
g3522
s(I8
I13
tp8506
g6572
ssg2030
(dp8507
(I11
I15
tp8508
g2552
s(I16
I20
tp8509
g3064
ssg2032
(dp8510
(I4
I13
tp8511
g6710
s(I20
I13
tp8512
g5564
s(I25
I18
tp8513
g8138
ssg2034
(dp8514
(I14
I26
tp8515
g3153
s(I19
I31
tp8516
g5229
s(I14
I10
tp8517
g8117
s(I19
I5
tp8518
g5276
ssg2036
(dp8519
(I14
I19
tp8520
g2888
s(I9
I14
tp8521
g7458
ssg2038
(dp8522
(I17
I19
tp8523
g8439
s(I12
I14
tp8524
g8125
ssg2040
(dp8525
(I5
I14
tp8526
g7590
s(I21
I14
tp8527
g6559
s(I0
I19
tp8528
g3459
s(I26
I19
tp8529
g4928
ssg2042
(dp8530
(I15
I29
tp8531
g4301
s(I15
I13
tp8532
g2622
s(I20
I8
tp8533
g3648
ssg2044
(dp8534
(I10
I13
tp8535
g7476
s(I15
I8
tp8536
g8329
ssg2046
(dp8537
(I13
I13
tp8538
g2638
s(I18
I18
tp8539
g5319
ssg2048
(dp8540
(I16
I16
tp8541
g7649
s(I21
I11
tp8542
g4797
ssg2050
(dp8543
(I11
I16
tp8544
g6159
s(I16
I21
tp8545
g6984
ssg2052
(dp8546
(I19
I21
tp8547
g6752
s(I14
I0
tp8548
g5390
s(I14
I16
tp8549
g6852
ssg2054
(dp8550
(I22
I20
tp8551
g8032
s(I17
I15
tp8552
g8022
ssg2056
(dp8553
(I17
I22
tp8554
g7833
s(I12
I17
tp8555
g2259
ssg2058
(dp8556
(I27
I17
tp8557
g4105
s(I11
I17
tp8558
g8500
s(I6
I22
tp8559
g5522
sssS'adj'
p8560
g2063
sbsS'cc_spatial'
p8561
(lp8562
(lp8563
I1
aI1
aI1
aI1
aI1
aI1
aI1
aI1
aI1
aI1
aI1
aI1
aI1
aI1
aI1
aI1
aI1
aI1
aI1
aI1
aI1
aI1
aI1
aI1
aI1
aI1
aI1
aI1
aI1
aI1
aI1
aI1
aa(lp8564
I1
aI1
aI1
aI1
aI1
aI1
aI1
aI1
aI1
aI1
aI1
aI1
aI1
aI1
aI1
aI1
aI1
aI1
aI1
aI1
aI1
aI1
aI1
aI1
aI1
aI1
aI1
aI1
aI1
aI1
aI1
aI1
aa(lp8565
I1
aI1
aI1
aI1
aI1
aI1
aI1
aI1
aI1
aI1
aI1
aI1
aI1
aI1
aI1
aI1
aI1
aI1
aI1
aI1
aI1
aI1
aI1
aI1
aI1
aI1
aI1
aI1
aI1
aI1
aI1
aI1
aa(lp8566
I1
aI1
aI1
aI1
aI1
aI1
aI1
aI1
aI1
aI1
aI1
aI1
aI1
aI1
aI1
aI1
aI1
aI1
aI1
aI1
aI1
aI1
aI1
aI1
aI1
aI1
aI1
aI1
aI1
aI1
aI1
aI1
aa(lp8567
I1
aI1
aI1
aI1
aI1
aI1
aI1
aI1
aI1
aI1
aI1
aI1
aI1
aI1
aI1
aI1
aI1
aI1
aI1
aI1
aI1
aI1
aI1
aI1
aI1
aI1
aI1
aI1
aI1
aI1
aI1
aI1
aa(lp8568
I1
aI1
aI1
aI1
aI1
aI1
aI1
aI1
aI1
aI1
aI1
aI1
aI1
aI1
aI1
aI1
aI1
aI1
aI1
aI1
aI1
aI1
aI1
aI1
aI1
aI1
aI1
aI1
aI1
aI1
aI1
aI1
aa(lp8569
I1
aI1
aI1
aI1
aI1
aI1
aI1
aI1
aI1
aI1
aI1
aI1
aI1
aI1
aI1
aI1
aI1
aI1
aI1
aI1
aI1
aI1
aI1
aI1
aI1
aI1
aI1
aI1
aI1
aI1
aI1
aI1
aa(lp8570
I1
aI1
aI1
aI1
aI1
aI1
aI1
aI1
aI1
aI1
aI1
aI1
aI1
aI1
aI1
aI1
aI1
aI1
aI1
aI1
aI1
aI1
aI1
aI1
aI1
aI1
aI1
aI1
aI1
aI1
aI1
aI1
aa(lp8571
I1
aI1
aI1
aI1
aI1
aI1
aI1
aI1
aI1
aI1
aI1
aI1
aI1
aI1
aI1
aI1
aI1
aI1
aI1
aI1
aI1
aI1
aI1
aI1
aI1
aI1
aI1
aI1
aI1
aI1
aI1
aI1
aa(lp8572
I1
aI1
aI1
aI1
aI1
aI1
aI1
aI1
aI1
aI1
aI1
aI1
aI1
aI1
aI1
aI1
aI1
aI1
aI1
aI1
aI1
aI1
aI1
aI1
aI1
aI1
aI1
aI1
aI1
aI1
aI1
aI1
aa(lp8573
I1
aI1
aI1
aI1
aI1
aI1
aI1
aI1
aI1
aI1
aI1
aI1
aI1
aI1
aI1
aI1
aI1
aI1
aI1
aI1
aI1
aI1
aI1
aI1
aI1
aI1
aI1
aI1
aI1
aI1
aI1
aI1
aa(lp8574
I1
aI1
aI1
aI1
aI1
aI1
aI1
aI1
aI1
aI1
aI1
aI1
aI1
aI1
aI1
aI1
aI1
aI1
aI1
aI1
aI1
aI1
aI1
aI1
aI1
aI1
aI1
aI1
aI1
aI1
aI1
aI1
aa(lp8575
I1
aI1
aI1
aI1
aI1
aI1
aI1
aI1
aI1
aI1
aI1
aI1
aI1
aI1
aI1
aI1
aI1
aI1
aI1
aI1
aI1
aI1
aI1
aI1
aI1
aI1
aI1
aI1
aI1
aI1
aI1
aI1
aa(lp8576
I1
aI1
aI1
aI1
aI1
aI1
aI1
aI1
aI1
aI1
aI1
aI1
aI1
aI1
aI1
aI1
aI1
aI1
aI1
aI1
aI1
aI1
aI1
aI1
aI1
aI1
aI1
aI1
aI1
aI1
aI1
aI1
aa(lp8577
I1
aI1
aI1
aI1
aI1
aI1
aI1
aI1
aI1
aI1
aI1
aI1
aI1
aI1
aI1
aI1
aI1
aI1
aI1
aI1
aI1
aI1
aI1
aI1
aI1
aI1
aI1
aI1
aI1
aI1
aI1
aI1
aa(lp8578
I1
aI1
aI1
aI1
aI1
aI1
aI1
aI1
aI1
aI1
aI1
aI1
aI1
aI1
aI1
aI1
aI1
aI1
aI1
aI1
aI1
aI1
aI1
aI1
aI1
aI1
aI1
aI1
aI1
aI1
aI1
aI1
aa(lp8579
I1
aI1
aI1
aI1
aI1
aI1
aI1
aI1
aI1
aI1
aI1
aI1
aI1
aI1
aI1
aI1
aI1
aI1
aI1
aI1
aI1
aI1
aI1
aI1
aI1
aI1
aI1
aI1
aI1
aI1
aI1
aI1
aa(lp8580
I1
aI1
aI1
aI1
aI1
aI1
aI1
aI1
aI1
aI1
aI1
aI1
aI1
aI1
aI1
aI1
aI1
aI1
aI1
aI1
aI1
aI1
aI1
aI1
aI1
aI1
aI1
aI1
aI1
aI1
aI1
aI1
aa(lp8581
I1
aI1
aI1
aI1
aI1
aI1
aI1
aI1
aI1
aI1
aI1
aI1
aI1
aI1
aI1
aI1
aI1
aI1
aI1
aI1
aI1
aI1
aI1
aI1
aI1
aI1
aI1
aI1
aI1
aI1
aI1
aI1
aa(lp8582
I1
aI1
aI1
aI1
aI1
aI1
aI1
aI1
aI1
aI1
aI1
aI1
aI1
aI1
aI1
aI1
aI1
aI1
aI1
aI1
aI1
aI1
aI1
aI1
aI1
aI1
aI1
aI1
aI1
aI1
aI1
aI1
aa(lp8583
I1
aI1
aI1
aI1
aI1
aI1
aI1
aI1
aI1
aI1
aI1
aI1
aI1
aI1
aI1
aI1
aI1
aI1
aI1
aI1
aI1
aI1
aI1
aI1
aI1
aI1
aI1
aI1
aI1
aI1
aI1
aI1
aa(lp8584
I1
aI1
aI1
aI1
aI1
aI1
aI1
aI1
aI1
aI1
aI1
aI1
aI1
aI1
aI1
aI1
aI1
aI1
aI1
aI1
aI1
aI1
aI1
aI1
aI1
aI1
aI1
aI1
aI1
aI1
aI1
aI1
aa(lp8585
I1
aI1
aI1
aI1
aI1
aI1
aI1
aI1
aI1
aI1
aI1
aI1
aI1
aI1
aI1
aI1
aI1
aI1
aI1
aI1
aI1
aI1
aI1
aI1
aI1
aI1
aI1
aI1
aI1
aI1
aI1
aI1
aa(lp8586
I1
aI1
aI1
aI1
aI1
aI1
aI1
aI1
aI1
aI1
aI1
aI1
aI1
aI1
aI1
aI1
aI1
aI1
aI1
aI1
aI1
aI1
aI1
aI1
aI1
aI1
aI1
aI1
aI1
aI1
aI1
aI1
aa(lp8587
I1
aI1
aI1
aI1
aI1
aI1
aI1
aI1
aI1
aI1
aI1
aI1
aI1
aI1
aI1
aI1
aI1
aI1
aI1
aI1
aI1
aI1
aI1
aI1
aI1
aI1
aI1
aI1
aI1
aI1
aI1
aI1
aa(lp8588
I1
aI1
aI1
aI1
aI1
aI1
aI1
aI1
aI1
aI1
aI1
aI1
aI1
aI1
aI1
aI1
aI1
aI1
aI1
aI1
aI1
aI1
aI1
aI1
aI1
aI1
aI1
aI1
aI1
aI1
aI1
aI1
aa(lp8589
I1
aI1
aI1
aI1
aI1
aI1
aI1
aI1
aI1
aI1
aI1
aI1
aI1
aI1
aI1
aI1
aI1
aI1
aI1
aI1
aI1
aI1
aI1
aI1
aI1
aI1
aI1
aI1
aI1
aI1
aI1
aI1
aa(lp8590
I1
aI1
aI1
aI1
aI1
aI1
aI1
aI1
aI1
aI1
aI1
aI1
aI1
aI1
aI1
aI1
aI1
aI1
aI1
aI1
aI1
aI1
aI1
aI1
aI1
aI1
aI1
aI1
aI1
aI1
aI1
aI1
aa(lp8591
I1
aI1
aI1
aI1
aI1
aI1
aI1
aI1
aI1
aI1
aI1
aI1
aI1
aI1
aI1
aI1
aI1
aI1
aI1
aI1
aI1
aI1
aI1
aI1
aI1
aI1
aI1
aI1
aI1
aI1
aI1
aI1
aa(lp8592
I1
aI1
aI1
aI1
aI1
aI1
aI1
aI1
aI1
aI1
aI1
aI1
aI1
aI1
aI1
aI1
aI1
aI1
aI1
aI1
aI1
aI1
aI1
aI1
aI1
aI1
aI1
aI1
aI1
aI1
aI1
aI1
aa(lp8593
I1
aI1
aI1
aI1
aI1
aI1
aI1
aI1
aI1
aI1
aI1
aI1
aI1
aI1
aI1
aI1
aI1
aI1
aI1
aI1
aI1
aI1
aI1
aI1
aI1
aI1
aI1
aI1
aI1
aI1
aI1
aI1
aa(lp8594
I1
aI1
aI1
aI1
aI1
aI1
aI1
aI1
aI1
aI1
aI1
aI1
aI1
aI1
aI1
aI1
aI1
aI1
aI1
aI1
aI1
aI1
aI1
aI1
aI1
aI1
aI1
aI1
aI1
aI1
aI1
aI1
aasS'q'
p8595
I13
sS'p'
p8596
I8
sS'degree_spatial'
p8597
(lp8598
(lp8599
I2
aI2
aI2
aI2
aI2
aI2
aI2
aI2
aI3
aI3
aI3
aI3
aI3
aI4
aI4
aI4
aI4
aI4
aI4
aI3
aI3
aI3
aI3
aI3
aI2
aI2
aI2
aI2
aI2
aI2
aI2
aI2
aa(lp8600
I2
aI2
aI2
aI2
aI2
aI2
aI2
aI2
aI3
aI3
aI3
aI3
aI3
aI4
aI4
aI4
aI4
aI4
aI4
aI3
aI3
aI3
aI3
aI3
aI2
aI2
aI2
aI2
aI2
aI2
aI2
aI2
aa(lp8601
I2
aI2
aI2
aI2
aI2
aI2
aI2
aI2
aI3
aI3
aI3
aI3
aI3
aI4
aI4
aI4
aI4
aI4
aI4
aI3
aI3
aI3
aI3
aI3
aI2
aI2
aI2
aI2
aI2
aI2
aI2
aI2
aa(lp8602
I2
aI2
aI2
aI2
aI2
aI2
aI2
aI2
aI3
aI3
aI3
aI3
aI3
aI4
aI4
aI4
aI4
aI4
aI4
aI3
aI3
aI3
aI3
aI3
aI2
aI2
aI2
aI2
aI2
aI2
aI2
aI2
aa(lp8603
I2
aI2
aI2
aI2
aI2
aI2
aI2
aI2
aI3
aI3
aI3
aI3
aI3
aI4
aI4
aI4
aI4
aI4
aI4
aI3
aI3
aI3
aI3
aI3
aI2
aI2
aI2
aI2
aI2
aI2
aI2
aI2
aa(lp8604
I2
aI2
aI2
aI2
aI2
aI2
aI2
aI2
aI3
aI3
aI3
aI3
aI3
aI4
aI4
aI4
aI4
aI4
aI4
aI3
aI3
aI3
aI3
aI3
aI2
aI2
aI2
aI2
aI2
aI2
aI2
aI2
aa(lp8605
I2
aI2
aI2
aI2
aI2
aI2
aI2
aI2
aI3
aI3
aI3
aI3
aI3
aI4
aI4
aI4
aI4
aI4
aI4
aI3
aI3
aI3
aI3
aI3
aI2
aI2
aI2
aI2
aI2
aI2
aI2
aI2
aa(lp8606
I2
aI2
aI2
aI2
aI2
aI2
aI2
aI2
aI3
aI3
aI3
aI3
aI3
aI4
aI4
aI4
aI4
aI4
aI4
aI3
aI3
aI3
aI3
aI3
aI2
aI2
aI2
aI2
aI2
aI2
aI2
aI2
aa(lp8607
I3
aI3
aI3
aI3
aI3
aI3
aI3
aI3
aI4
aI4
aI4
aI4
aI4
aI6
aI6
aI6
aI6
aI6
aI6
aI4
aI4
aI4
aI4
aI4
aI3
aI3
aI3
aI3
aI3
aI3
aI3
aI3
aa(lp8608
I3
aI3
aI3
aI3
aI3
aI3
aI3
aI3
aI4
aI4
aI4
aI4
aI4
aI6
aI6
aI6
aI6
aI6
aI6
aI4
aI4
aI4
aI4
aI4
aI3
aI3
aI3
aI3
aI3
aI3
aI3
aI3
aa(lp8609
I3
aI3
aI3
aI3
aI3
aI3
aI3
aI3
aI4
aI4
aI4
aI4
aI4
aI6
aI6
aI6
aI6
aI6
aI6
aI4
aI4
aI4
aI4
aI4
aI3
aI3
aI3
aI3
aI3
aI3
aI3
aI3
aa(lp8610
I3
aI3
aI3
aI3
aI3
aI3
aI3
aI3
aI4
aI4
aI4
aI4
aI4
aI6
aI6
aI6
aI6
aI6
aI6
aI4
aI4
aI4
aI4
aI4
aI3
aI3
aI3
aI3
aI3
aI3
aI3
aI3
aa(lp8611
I3
aI3
aI3
aI3
aI3
aI3
aI3
aI3
aI4
aI4
aI4
aI4
aI4
aI6
aI6
aI6
aI6
aI6
aI6
aI4
aI4
aI4
aI4
aI4
aI3
aI3
aI3
aI3
aI3
aI3
aI3
aI3
aa(lp8612
I4
aI4
aI4
aI4
aI4
aI4
aI4
aI4
aI6
aI6
aI6
aI6
aI6
aI8
aI8
aI8
aI8
aI8
aI8
aI6
aI6
aI6
aI6
aI6
aI4
aI4
aI4
aI4
aI4
aI4
aI4
aI4
aa(lp8613
I4
aI4
aI4
aI4
aI4
aI4
aI4
aI4
aI6
aI6
aI6
aI6
aI6
aI8
aI8
aI8
aI8
aI8
aI8
aI6
aI6
aI6
aI6
aI6
aI4
aI4
aI4
aI4
aI4
aI4
aI4
aI4
aa(lp8614
I4
aI4
aI4
aI4
aI4
aI4
aI4
aI4
aI6
aI6
aI6
aI6
aI6
aI8
aI8
aI8
aI8
aI8
aI8
aI6
aI6
aI6
aI6
aI6
aI4
aI4
aI4
aI4
aI4
aI4
aI4
aI4
aa(lp8615
I4
aI4
aI4
aI4
aI4
aI4
aI4
aI4
aI6
aI6
aI6
aI6
aI6
aI8
aI8
aI8
aI8
aI8
aI8
aI6
aI6
aI6
aI6
aI6
aI4
aI4
aI4
aI4
aI4
aI4
aI4
aI4
aa(lp8616
I4
aI4
aI4
aI4
aI4
aI4
aI4
aI4
aI6
aI6
aI6
aI6
aI6
aI8
aI8
aI8
aI8
aI8
aI8
aI6
aI6
aI6
aI6
aI6
aI4
aI4
aI4
aI4
aI4
aI4
aI4
aI4
aa(lp8617
I4
aI4
aI4
aI4
aI4
aI4
aI4
aI4
aI6
aI6
aI6
aI6
aI6
aI8
aI8
aI8
aI8
aI8
aI8
aI6
aI6
aI6
aI6
aI6
aI4
aI4
aI4
aI4
aI4
aI4
aI4
aI4
aa(lp8618
I3
aI3
aI3
aI3
aI3
aI3
aI3
aI3
aI4
aI4
aI4
aI4
aI4
aI6
aI6
aI6
aI6
aI6
aI6
aI4
aI4
aI4
aI4
aI4
aI3
aI3
aI3
aI3
aI3
aI3
aI3
aI3
aa(lp8619
I3
aI3
aI3
aI3
aI3
aI3
aI3
aI3
aI4
aI4
aI4
aI4
aI4
aI6
aI6
aI6
aI6
aI6
aI6
aI4
aI4
aI4
aI4
aI4
aI3
aI3
aI3
aI3
aI3
aI3
aI3
aI3
aa(lp8620
I3
aI3
aI3
aI3
aI3
aI3
aI3
aI3
aI4
aI4
aI4
aI4
aI4
aI6
aI6
aI6
aI6
aI6
aI6
aI4
aI4
aI4
aI4
aI4
aI3
aI3
aI3
aI3
aI3
aI3
aI3
aI3
aa(lp8621
I3
aI3
aI3
aI3
aI3
aI3
aI3
aI3
aI4
aI4
aI4
aI4
aI4
aI6
aI6
aI6
aI6
aI6
aI6
aI4
aI4
aI4
aI4
aI4
aI3
aI3
aI3
aI3
aI3
aI3
aI3
aI3
aa(lp8622
I3
aI3
aI3
aI3
aI3
aI3
aI3
aI3
aI4
aI4
aI4
aI4
aI4
aI6
aI6
aI6
aI6
aI6
aI6
aI4
aI4
aI4
aI4
aI4
aI3
aI3
aI3
aI3
aI3
aI3
aI3
aI3
aa(lp8623
I2
aI2
aI2
aI2
aI2
aI2
aI2
aI2
aI3
aI3
aI3
aI3
aI3
aI4
aI4
aI4
aI4
aI4
aI4
aI3
aI3
aI3
aI3
aI3
aI2
aI2
aI2
aI2
aI2
aI2
aI2
aI2
aa(lp8624
I2
aI2
aI2
aI2
aI2
aI2
aI2
aI2
aI3
aI3
aI3
aI3
aI3
aI4
aI4
aI4
aI4
aI4
aI4
aI3
aI3
aI3
aI3
aI3
aI2
aI2
aI2
aI2
aI2
aI2
aI2
aI2
aa(lp8625
I2
aI2
aI2
aI2
aI2
aI2
aI2
aI2
aI3
aI3
aI3
aI3
aI3
aI4
aI4
aI4
aI4
aI4
aI4
aI3
aI3
aI3
aI3
aI3
aI2
aI2
aI2
aI2
aI2
aI2
aI2
aI2
aa(lp8626
I2
aI2
aI2
aI2
aI2
aI2
aI2
aI2
aI3
aI3
aI3
aI3
aI3
aI4
aI4
aI4
aI4
aI4
aI4
aI3
aI3
aI3
aI3
aI3
aI2
aI2
aI2
aI2
aI2
aI2
aI2
aI2
aa(lp8627
I2
aI2
aI2
aI2
aI2
aI2
aI2
aI2
aI3
aI3
aI3
aI3
aI3
aI4
aI4
aI4
aI4
aI4
aI4
aI3
aI3
aI3
aI3
aI3
aI2
aI2
aI2
aI2
aI2
aI2
aI2
aI2
aa(lp8628
I2
aI2
aI2
aI2
aI2
aI2
aI2
aI2
aI3
aI3
aI3
aI3
aI3
aI4
aI4
aI4
aI4
aI4
aI4
aI3
aI3
aI3
aI3
aI3
aI2
aI2
aI2
aI2
aI2
aI2
aI2
aI2
aa(lp8629
I2
aI2
aI2
aI2
aI2
aI2
aI2
aI2
aI3
aI3
aI3
aI3
aI3
aI4
aI4
aI4
aI4
aI4
aI4
aI3
aI3
aI3
aI3
aI3
aI2
aI2
aI2
aI2
aI2
aI2
aI2
aI2
aa(lp8630
I2
aI2
aI2
aI2
aI2
aI2
aI2
aI2
aI3
aI3
aI3
aI3
aI3
aI4
aI4
aI4
aI4
aI4
aI4
aI3
aI3
aI3
aI3
aI3
aI2
aI2
aI2
aI2
aI2
aI2
aI2
aI2
aasb.